; Listing generated by Microsoft (R) Optimizing Compiler Version 15.00.30729.01 

	TITLE	f:\3DTetris\trunk\Librarys\Bohge\External\Json\src\lib_json\json_writer.cpp
	.686P
	.XMM
	include listing.inc
	.model	flat

INCLUDELIB MSVCRT

PUBLIC	??_C@_0P@GHFPNOJB@bad?5allocation?$AA@		; `string'
_DATA	SEGMENT
__bad_alloc_Message DD FLAT:??_C@_0P@GHFPNOJB@bad?5allocation?$AA@
_DATA	ENDS
;	COMDAT ??_C@_0P@GHFPNOJB@bad?5allocation?$AA@
CONST	SEGMENT
??_C@_0P@GHFPNOJB@bad?5allocation?$AA@ DB 'bad allocation', 00H ; `string'
CONST	ENDS
PUBLIC	__$ArrayPad$
PUBLIC	?valueToString@Json@@YA?AV?$basic_string@DU?$char_traits@D@std@@V?$allocator@D@2@@std@@H@Z ; Json::valueToString
EXTRN	__imp_??0?$basic_string@DU?$char_traits@D@std@@V?$allocator@D@2@@std@@QAE@PBD@Z:PROC
EXTRN	___security_cookie:DWORD
EXTRN	@__security_check_cookie@4:PROC
; Function compile flags: /Odtp
; File f:\3dtetris\trunk\librarys\bohge\external\json\src\lib_json\json_writer.cpp
;	COMDAT ?valueToString@Json@@YA?AV?$basic_string@DU?$char_traits@D@std@@V?$allocator@D@2@@std@@H@Z
_TEXT	SEGMENT
$T62925 = -48						; size = 4
_buffer$ = -44						; size = 32
__$ArrayPad$ = -12					; size = 4
_isNegative$ = -5					; size = 1
_current$ = -4						; size = 4
___$ReturnUdt$ = 8					; size = 4
_value$ = 12						; size = 4
?valueToString@Json@@YA?AV?$basic_string@DU?$char_traits@D@std@@V?$allocator@D@2@@std@@H@Z PROC ; Json::valueToString, COMDAT

; 43   : {

	push	ebp
	mov	ebp, esp
	sub	esp, 48					; 00000030H
	mov	eax, DWORD PTR ___security_cookie
	xor	eax, ebp
	mov	DWORD PTR __$ArrayPad$[ebp], eax
	mov	DWORD PTR $T62925[ebp], 0

; 44   :    char buffer[32];
; 45   :    char *current = buffer + sizeof(buffer);

	lea	eax, DWORD PTR _buffer$[ebp+32]
	mov	DWORD PTR _current$[ebp], eax

; 46   :    bool isNegative = value < 0;

	xor	ecx, ecx
	cmp	DWORD PTR _value$[ebp], 0
	setl	cl
	mov	BYTE PTR _isNegative$[ebp], cl

; 47   :    if ( isNegative )

	movzx	edx, BYTE PTR _isNegative$[ebp]
	test	edx, edx
	je	SHORT $LN2@valueToStr

; 48   :       value = -value;

	mov	eax, DWORD PTR _value$[ebp]
	neg	eax
	mov	DWORD PTR _value$[ebp], eax
$LN2@valueToStr:

; 49   :    uintToString( UInt(value), current );

	lea	ecx, DWORD PTR _current$[ebp]
	push	ecx
	mov	edx, DWORD PTR _value$[ebp]
	push	edx
	call	?uintToString@Json@@YAXIAAPAD@Z		; Json::uintToString
	add	esp, 8

; 50   :    if ( isNegative )

	movzx	eax, BYTE PTR _isNegative$[ebp]
	test	eax, eax
	je	SHORT $LN1@valueToStr

; 51   :       *--current = '-';

	mov	ecx, DWORD PTR _current$[ebp]
	sub	ecx, 1
	mov	DWORD PTR _current$[ebp], ecx
	mov	edx, DWORD PTR _current$[ebp]
	mov	BYTE PTR [edx], 45			; 0000002dH
$LN1@valueToStr:

; 52   :    assert( current >= buffer );
; 53   :    return current;

	mov	eax, DWORD PTR _current$[ebp]
	push	eax
	mov	ecx, DWORD PTR ___$ReturnUdt$[ebp]
	call	DWORD PTR __imp_??0?$basic_string@DU?$char_traits@D@std@@V?$allocator@D@2@@std@@QAE@PBD@Z
	mov	ecx, DWORD PTR $T62925[ebp]
	or	ecx, 1
	mov	DWORD PTR $T62925[ebp], ecx
	mov	eax, DWORD PTR ___$ReturnUdt$[ebp]

; 54   : }

	mov	ecx, DWORD PTR __$ArrayPad$[ebp]
	xor	ecx, ebp
	call	@__security_check_cookie@4
	mov	esp, ebp
	pop	ebp
	ret	0
?valueToString@Json@@YA?AV?$basic_string@DU?$char_traits@D@std@@V?$allocator@D@2@@std@@H@Z ENDP ; Json::valueToString
; Function compile flags: /Odtp
_TEXT	ENDS
;	COMDAT ?uintToString@Json@@YAXIAAPAD@Z
_TEXT	SEGMENT
_value$ = 8						; size = 4
_current$ = 12						; size = 4
?uintToString@Json@@YAXIAAPAD@Z PROC			; Json::uintToString, COMDAT

; 32   : {

	push	ebp
	mov	ebp, esp
	push	esi

; 33   :    *--current = 0;

	mov	eax, DWORD PTR _current$[ebp]
	mov	ecx, DWORD PTR [eax]
	sub	ecx, 1
	mov	edx, DWORD PTR _current$[ebp]
	mov	DWORD PTR [edx], ecx
	mov	eax, DWORD PTR _current$[ebp]
	mov	ecx, DWORD PTR [eax]
	mov	BYTE PTR [ecx], 0
$LN3@uintToStri:

; 34   :    do
; 35   :    {
; 36   :       *--current = (value % 10) + '0';

	mov	edx, DWORD PTR _current$[ebp]
	mov	eax, DWORD PTR [edx]
	sub	eax, 1
	mov	ecx, DWORD PTR _current$[ebp]
	mov	DWORD PTR [ecx], eax
	mov	edx, DWORD PTR _current$[ebp]
	mov	ecx, DWORD PTR [edx]
	mov	eax, DWORD PTR _value$[ebp]
	xor	edx, edx
	mov	esi, 10					; 0000000aH
	div	esi
	add	edx, 48					; 00000030H
	mov	BYTE PTR [ecx], dl

; 37   :       value /= 10;

	mov	eax, DWORD PTR _value$[ebp]
	xor	edx, edx
	mov	ecx, 10					; 0000000aH
	div	ecx
	mov	DWORD PTR _value$[ebp], eax

; 38   :    }
; 39   :    while ( value != 0 );

	cmp	DWORD PTR _value$[ebp], 0
	jne	SHORT $LN3@uintToStri

; 40   : }

	pop	esi
	pop	ebp
	ret	0
?uintToString@Json@@YAXIAAPAD@Z ENDP			; Json::uintToString
_TEXT	ENDS
PUBLIC	__$ArrayPad$
PUBLIC	?valueToString@Json@@YA?AV?$basic_string@DU?$char_traits@D@std@@V?$allocator@D@2@@std@@I@Z ; Json::valueToString
; Function compile flags: /Odtp
;	COMDAT ?valueToString@Json@@YA?AV?$basic_string@DU?$char_traits@D@std@@V?$allocator@D@2@@std@@I@Z
_TEXT	SEGMENT
$T62935 = -44						; size = 4
_buffer$ = -40						; size = 32
__$ArrayPad$ = -8					; size = 4
_current$ = -4						; size = 4
___$ReturnUdt$ = 8					; size = 4
_value$ = 12						; size = 4
?valueToString@Json@@YA?AV?$basic_string@DU?$char_traits@D@std@@V?$allocator@D@2@@std@@I@Z PROC ; Json::valueToString, COMDAT

; 58   : {

	push	ebp
	mov	ebp, esp
	sub	esp, 44					; 0000002cH
	mov	eax, DWORD PTR ___security_cookie
	xor	eax, ebp
	mov	DWORD PTR __$ArrayPad$[ebp], eax
	mov	DWORD PTR $T62935[ebp], 0

; 59   :    char buffer[32];
; 60   :    char *current = buffer + sizeof(buffer);

	lea	eax, DWORD PTR _buffer$[ebp+32]
	mov	DWORD PTR _current$[ebp], eax

; 61   :    uintToString( value, current );

	lea	ecx, DWORD PTR _current$[ebp]
	push	ecx
	mov	edx, DWORD PTR _value$[ebp]
	push	edx
	call	?uintToString@Json@@YAXIAAPAD@Z		; Json::uintToString
	add	esp, 8

; 62   :    assert( current >= buffer );
; 63   :    return current;

	mov	eax, DWORD PTR _current$[ebp]
	push	eax
	mov	ecx, DWORD PTR ___$ReturnUdt$[ebp]
	call	DWORD PTR __imp_??0?$basic_string@DU?$char_traits@D@std@@V?$allocator@D@2@@std@@QAE@PBD@Z
	mov	ecx, DWORD PTR $T62935[ebp]
	or	ecx, 1
	mov	DWORD PTR $T62935[ebp], ecx
	mov	eax, DWORD PTR ___$ReturnUdt$[ebp]

; 64   : }

	mov	ecx, DWORD PTR __$ArrayPad$[ebp]
	xor	ecx, ebp
	call	@__security_check_cookie@4
	mov	esp, ebp
	pop	ebp
	ret	0
?valueToString@Json@@YA?AV?$basic_string@DU?$char_traits@D@std@@V?$allocator@D@2@@std@@I@Z ENDP ; Json::valueToString
_TEXT	ENDS
PUBLIC	??_C@_06ECBCCLMB@?$CF?$CD?416g?$AA@		; `string'
PUBLIC	__$ArrayPad$
PUBLIC	?valueToString@Json@@YA?AV?$basic_string@DU?$char_traits@D@std@@V?$allocator@D@2@@std@@N@Z ; Json::valueToString
EXTRN	__imp__sprintf_s:PROC
EXTRN	__fltused:DWORD
;	COMDAT ??_C@_06ECBCCLMB@?$CF?$CD?416g?$AA@
CONST	SEGMENT
??_C@_06ECBCCLMB@?$CF?$CD?416g?$AA@ DB '%#.16g', 00H	; `string'
; Function compile flags: /Odtp
CONST	ENDS
;	COMDAT ?valueToString@Json@@YA?AV?$basic_string@DU?$char_traits@D@std@@V?$allocator@D@2@@std@@N@Z
_TEXT	SEGMENT
tv85 = -68						; size = 4
tv70 = -64						; size = 4
tv150 = -57						; size = 1
tv147 = -56						; size = 4
tv144 = -52						; size = 4
$T62941 = -48						; size = 4
_buffer$ = -44						; size = 32
__$ArrayPad$ = -12					; size = 4
_ch$ = -8						; size = 4
_last_nonzero$ = -4					; size = 4
___$ReturnUdt$ = 8					; size = 4
_value$ = 12						; size = 8
?valueToString@Json@@YA?AV?$basic_string@DU?$char_traits@D@std@@V?$allocator@D@2@@std@@N@Z PROC ; Json::valueToString, COMDAT

; 67   : {

	push	ebp
	mov	ebp, esp
	sub	esp, 68					; 00000044H
	mov	eax, DWORD PTR ___security_cookie
	xor	eax, ebp
	mov	DWORD PTR __$ArrayPad$[ebp], eax
	mov	DWORD PTR $T62941[ebp], 0

; 68   :    char buffer[32];
; 69   : #if defined(_MSC_VER) && defined(__STDC_SECURE_LIB__) // Use secure version with visual studio 2005 to avoid warning. 
; 70   :    sprintf_s(buffer, sizeof(buffer), "%#.16g", value); 

	sub	esp, 8
	fld	QWORD PTR _value$[ebp]
	fstp	QWORD PTR [esp]
	push	OFFSET ??_C@_06ECBCCLMB@?$CF?$CD?416g?$AA@
	push	32					; 00000020H
	lea	eax, DWORD PTR _buffer$[ebp]
	push	eax
	call	DWORD PTR __imp__sprintf_s
	add	esp, 20					; 00000014H

; 71   : #else	
; 72   :    sprintf(buffer, "%#.16g", value); 
; 73   : #endif
; 74   :    char* ch = buffer + strlen(buffer) - 1;

	lea	ecx, DWORD PTR _buffer$[ebp]
	mov	DWORD PTR tv144[ebp], ecx
	mov	edx, DWORD PTR tv144[ebp]
	add	edx, 1
	mov	DWORD PTR tv147[ebp], edx
$LL15@valueToStr@2:
	mov	eax, DWORD PTR tv144[ebp]
	mov	cl, BYTE PTR [eax]
	mov	BYTE PTR tv150[ebp], cl
	add	DWORD PTR tv144[ebp], 1
	cmp	BYTE PTR tv150[ebp], 0
	jne	SHORT $LL15@valueToStr@2
	mov	edx, DWORD PTR tv144[ebp]
	sub	edx, DWORD PTR tv147[ebp]
	mov	DWORD PTR tv70[ebp], edx
	mov	eax, DWORD PTR tv70[ebp]
	lea	ecx, DWORD PTR _buffer$[ebp+eax-1]
	mov	DWORD PTR _ch$[ebp], ecx

; 75   :    if (*ch != '0') return buffer; // nothing to truncate, so save time

	mov	edx, DWORD PTR _ch$[ebp]
	movsx	eax, BYTE PTR [edx]
	cmp	eax, 48					; 00000030H
	je	SHORT $LN10@valueToStr@2
	lea	ecx, DWORD PTR _buffer$[ebp]
	push	ecx
	mov	ecx, DWORD PTR ___$ReturnUdt$[ebp]
	call	DWORD PTR __imp_??0?$basic_string@DU?$char_traits@D@std@@V?$allocator@D@2@@std@@QAE@PBD@Z
	mov	edx, DWORD PTR $T62941[ebp]
	or	edx, 1
	mov	DWORD PTR $T62941[ebp], edx
	mov	eax, DWORD PTR ___$ReturnUdt$[ebp]
	jmp	$LN11@valueToStr@2
$LN10@valueToStr@2:

; 76   :    while(ch > buffer && *ch == '0'){

	mov	eax, DWORD PTR _ch$[ebp]
	lea	ecx, DWORD PTR _buffer$[ebp]
	cmp	eax, ecx
	jbe	SHORT $LN8@valueToStr@2
	mov	edx, DWORD PTR _ch$[ebp]
	movsx	eax, BYTE PTR [edx]
	cmp	eax, 48					; 00000030H
	jne	SHORT $LN8@valueToStr@2

; 77   :      --ch;

	mov	ecx, DWORD PTR _ch$[ebp]
	sub	ecx, 1
	mov	DWORD PTR _ch$[ebp], ecx

; 78   :    }

	jmp	SHORT $LN10@valueToStr@2
$LN8@valueToStr@2:

; 79   :    char* last_nonzero = ch;

	mov	edx, DWORD PTR _ch$[ebp]
	mov	DWORD PTR _last_nonzero$[ebp], edx
$LN7@valueToStr@2:

; 80   :    while(ch >= buffer){

	mov	eax, DWORD PTR _ch$[ebp]
	lea	ecx, DWORD PTR _buffer$[ebp]
	cmp	eax, ecx
	jb	SHORT $LN6@valueToStr@2

; 81   :      switch(*ch){

	mov	edx, DWORD PTR _ch$[ebp]
	mov	al, BYTE PTR [edx]
	mov	BYTE PTR tv85[ebp], al
	cmp	BYTE PTR tv85[ebp], 46			; 0000002eH
	je	SHORT $LN2@valueToStr@2
	cmp	BYTE PTR tv85[ebp], 47			; 0000002fH
	jle	SHORT $LN1@valueToStr@2
	cmp	BYTE PTR tv85[ebp], 57			; 00000039H
	jle	SHORT $LN3@valueToStr@2
	jmp	SHORT $LN1@valueToStr@2
$LN3@valueToStr@2:

; 82   :      case '0':
; 83   :      case '1':
; 84   :      case '2':
; 85   :      case '3':
; 86   :      case '4':
; 87   :      case '5':
; 88   :      case '6':
; 89   :      case '7':
; 90   :      case '8':
; 91   :      case '9':
; 92   :        --ch;

	mov	ecx, DWORD PTR _ch$[ebp]
	sub	ecx, 1
	mov	DWORD PTR _ch$[ebp], ecx

; 93   :        continue;

	jmp	SHORT $LN7@valueToStr@2
$LN2@valueToStr@2:

; 94   :      case '.':
; 95   :        // Truncate zeroes to save bytes in output, but keep one.
; 96   :        *(last_nonzero+2) = '\0';

	mov	edx, DWORD PTR _last_nonzero$[ebp]
	mov	BYTE PTR [edx+2], 0

; 97   :        return buffer;

	lea	eax, DWORD PTR _buffer$[ebp]
	push	eax
	mov	ecx, DWORD PTR ___$ReturnUdt$[ebp]
	call	DWORD PTR __imp_??0?$basic_string@DU?$char_traits@D@std@@V?$allocator@D@2@@std@@QAE@PBD@Z
	mov	ecx, DWORD PTR $T62941[ebp]
	or	ecx, 1
	mov	DWORD PTR $T62941[ebp], ecx
	mov	eax, DWORD PTR ___$ReturnUdt$[ebp]
	jmp	SHORT $LN11@valueToStr@2
$LN1@valueToStr@2:

; 98   :      default:
; 99   :        return buffer;

	lea	edx, DWORD PTR _buffer$[ebp]
	push	edx
	mov	ecx, DWORD PTR ___$ReturnUdt$[ebp]
	call	DWORD PTR __imp_??0?$basic_string@DU?$char_traits@D@std@@V?$allocator@D@2@@std@@QAE@PBD@Z
	mov	eax, DWORD PTR $T62941[ebp]
	or	eax, 1
	mov	DWORD PTR $T62941[ebp], eax
	mov	eax, DWORD PTR ___$ReturnUdt$[ebp]
	jmp	SHORT $LN11@valueToStr@2

; 100  :      }
; 101  :    }

	jmp	SHORT $LN7@valueToStr@2
$LN6@valueToStr@2:

; 102  :    return buffer;

	lea	ecx, DWORD PTR _buffer$[ebp]
	push	ecx
	mov	ecx, DWORD PTR ___$ReturnUdt$[ebp]
	call	DWORD PTR __imp_??0?$basic_string@DU?$char_traits@D@std@@V?$allocator@D@2@@std@@QAE@PBD@Z
	mov	edx, DWORD PTR $T62941[ebp]
	or	edx, 1
	mov	DWORD PTR $T62941[ebp], edx
	mov	eax, DWORD PTR ___$ReturnUdt$[ebp]
$LN11@valueToStr@2:

; 103  : }

	mov	ecx, DWORD PTR __$ArrayPad$[ebp]
	xor	ecx, ebp
	call	@__security_check_cookie@4
	mov	esp, ebp
	pop	ebp
	ret	0
?valueToString@Json@@YA?AV?$basic_string@DU?$char_traits@D@std@@V?$allocator@D@2@@std@@N@Z ENDP ; Json::valueToString
_TEXT	ENDS
PUBLIC	??_C@_05LAPONLG@false?$AA@			; `string'
PUBLIC	??_C@_04LOAJBDKD@true?$AA@			; `string'
PUBLIC	?valueToString@Json@@YA?AV?$basic_string@DU?$char_traits@D@std@@V?$allocator@D@2@@std@@_N@Z ; Json::valueToString
;	COMDAT ??_C@_05LAPONLG@false?$AA@
CONST	SEGMENT
??_C@_05LAPONLG@false?$AA@ DB 'false', 00H		; `string'
CONST	ENDS
;	COMDAT ??_C@_04LOAJBDKD@true?$AA@
CONST	SEGMENT
??_C@_04LOAJBDKD@true?$AA@ DB 'true', 00H		; `string'
; Function compile flags: /Odtp
CONST	ENDS
;	COMDAT ?valueToString@Json@@YA?AV?$basic_string@DU?$char_traits@D@std@@V?$allocator@D@2@@std@@_N@Z
_TEXT	SEGMENT
tv68 = -8						; size = 4
$T62950 = -4						; size = 4
___$ReturnUdt$ = 8					; size = 4
_value$ = 12						; size = 1
?valueToString@Json@@YA?AV?$basic_string@DU?$char_traits@D@std@@V?$allocator@D@2@@std@@_N@Z PROC ; Json::valueToString, COMDAT

; 107  : {

	push	ebp
	mov	ebp, esp
	sub	esp, 8
	mov	DWORD PTR $T62950[ebp], 0

; 108  :    return value ? "true" : "false";

	movzx	eax, BYTE PTR _value$[ebp]
	test	eax, eax
	je	SHORT $LN3@valueToStr@3
	mov	DWORD PTR tv68[ebp], OFFSET ??_C@_04LOAJBDKD@true?$AA@
	jmp	SHORT $LN4@valueToStr@3
$LN3@valueToStr@3:
	mov	DWORD PTR tv68[ebp], OFFSET ??_C@_05LAPONLG@false?$AA@
$LN4@valueToStr@3:
	mov	ecx, DWORD PTR tv68[ebp]
	push	ecx
	mov	ecx, DWORD PTR ___$ReturnUdt$[ebp]
	call	DWORD PTR __imp_??0?$basic_string@DU?$char_traits@D@std@@V?$allocator@D@2@@std@@QAE@PBD@Z
	mov	edx, DWORD PTR $T62950[ebp]
	or	edx, 1
	mov	DWORD PTR $T62950[ebp], edx
	mov	eax, DWORD PTR ___$ReturnUdt$[ebp]

; 109  : }

	mov	esp, ebp
	pop	ebp
	ret	0
?valueToString@Json@@YA?AV?$basic_string@DU?$char_traits@D@std@@V?$allocator@D@2@@std@@_N@Z ENDP ; Json::valueToString
_TEXT	ENDS
PUBLIC	??$?6DU?$char_traits@D@std@@H@std@@YAAAV?$basic_ostream@DU?$char_traits@D@std@@@0@AAV10@ABU?$_Smanip@H@0@@Z ; std::operator<<<char,std::char_traits<char>,int>
PUBLIC	??$?6DU?$char_traits@D@std@@@std@@YAAAV?$basic_ostream@DU?$char_traits@D@std@@@0@AAV10@ABU?$_Fillobj@D@0@@Z ; std::operator<<<char,std::char_traits<char> >
PUBLIC	??$?6U?$char_traits@D@std@@@std@@YAAAV?$basic_ostream@DU?$char_traits@D@std@@@0@AAV10@PBD@Z ; std::operator<<<std::char_traits<char> >
PUBLIC	??_C@_02DHFAHMIK@?2u?$AA@			; `string'
PUBLIC	?hex@std@@YAAAVios_base@1@AAV21@@Z		; std::hex
PUBLIC	?uppercase@std@@YAAAVios_base@1@AAV21@@Z	; std::uppercase
PUBLIC	??$setfill@D@std@@YA?AU?$_Fillobj@D@0@D@Z	; std::setfill<char>
PUBLIC	??_C@_02COELENML@?2t?$AA@			; `string'
PUBLIC	??_C@_02HIBBOKEN@?2r?$AA@			; `string'
PUBLIC	??_C@_02JOGGLHBA@?2n?$AA@			; `string'
PUBLIC	??_C@_02FGLPDNBI@?2f?$AA@			; `string'
PUBLIC	??_C@_02DCNDPIBM@?2b?$AA@			; `string'
PUBLIC	??_C@_02HDBGODGB@?2?2?$AA@			; `string'
PUBLIC	??_C@_02MCKKLHBJ@?2?$CC?$AA@			; `string'
PUBLIC	??_C@_01BJJEKLCA@?$CC?$AA@			; `string'
PUBLIC	??_C@_07FKPPGBGM@?$CC?2?$AI?$AM?6?$AN?7?$AA@	; `string'
PUBLIC	__$ArrayPad$
PUBLIC	?valueToQuotedString@Json@@YA?AV?$basic_string@DU?$char_traits@D@std@@V?$allocator@D@2@@std@@PBD@Z ; Json::valueToQuotedString
EXTRN	__imp_??0?$basic_string@DU?$char_traits@D@std@@V?$allocator@D@2@@std@@QAE@ABV01@@Z:PROC
EXTRN	__imp_??Y?$basic_string@DU?$char_traits@D@std@@V?$allocator@D@2@@std@@QAEAAV01@D@Z:PROC
EXTRN	__imp_??_D?$basic_ostringstream@DU?$char_traits@D@std@@V?$allocator@D@2@@std@@QAEXXZ:PROC
EXTRN	__imp_??Y?$basic_string@DU?$char_traits@D@std@@V?$allocator@D@2@@std@@QAEAAV01@ABV01@@Z:PROC
EXTRN	__imp_?str@?$basic_ostringstream@DU?$char_traits@D@std@@V?$allocator@D@2@@std@@QBE?AV?$basic_string@DU?$char_traits@D@std@@V?$allocator@D@2@@2@XZ:PROC
EXTRN	__imp_??6?$basic_ostream@DU?$char_traits@D@std@@@std@@QAEAAV01@H@Z:PROC
EXTRN	__imp_??6?$basic_ostream@DU?$char_traits@D@std@@@std@@QAEAAV01@P6AAAVios_base@1@AAV21@@Z@Z:PROC
EXTRN	__imp_?setw@std@@YA?AU?$_Smanip@H@1@H@Z:PROC
EXTRN	__imp_??0?$basic_ostringstream@DU?$char_traits@D@std@@V?$allocator@D@2@@std@@QAE@H@Z:PROC
EXTRN	__imp_??Y?$basic_string@DU?$char_traits@D@std@@V?$allocator@D@2@@std@@QAEAAV01@PBD@Z:PROC
EXTRN	__imp_?reserve@?$basic_string@DU?$char_traits@D@std@@V?$allocator@D@2@@std@@QAEXI@Z:PROC
EXTRN	__imp_??0?$basic_string@DU?$char_traits@D@std@@V?$allocator@D@2@@std@@QAE@XZ:PROC
EXTRN	__imp_??1?$basic_string@DU?$char_traits@D@std@@V?$allocator@D@2@@std@@QAE@XZ:PROC
EXTRN	__imp_??$?HDU?$char_traits@D@std@@V?$allocator@D@1@@std@@YA?AV?$basic_string@DU?$char_traits@D@std@@V?$allocator@D@2@@0@ABV10@PBD@Z:PROC
EXTRN	__imp__strpbrk:PROC
EXTRN	___CxxFrameHandler3:PROC
;	COMDAT ??_C@_02DHFAHMIK@?2u?$AA@
CONST	SEGMENT
??_C@_02DHFAHMIK@?2u?$AA@ DB '\u', 00H			; `string'
CONST	ENDS
;	COMDAT ??_C@_02COELENML@?2t?$AA@
CONST	SEGMENT
??_C@_02COELENML@?2t?$AA@ DB '\t', 00H			; `string'
CONST	ENDS
;	COMDAT ??_C@_02HIBBOKEN@?2r?$AA@
CONST	SEGMENT
??_C@_02HIBBOKEN@?2r?$AA@ DB '\r', 00H			; `string'
CONST	ENDS
;	COMDAT ??_C@_02JOGGLHBA@?2n?$AA@
CONST	SEGMENT
??_C@_02JOGGLHBA@?2n?$AA@ DB '\n', 00H			; `string'
CONST	ENDS
;	COMDAT ??_C@_02FGLPDNBI@?2f?$AA@
CONST	SEGMENT
??_C@_02FGLPDNBI@?2f?$AA@ DB '\f', 00H			; `string'
CONST	ENDS
;	COMDAT ??_C@_02DCNDPIBM@?2b?$AA@
CONST	SEGMENT
??_C@_02DCNDPIBM@?2b?$AA@ DB '\b', 00H			; `string'
CONST	ENDS
;	COMDAT ??_C@_02HDBGODGB@?2?2?$AA@
CONST	SEGMENT
??_C@_02HDBGODGB@?2?2?$AA@ DB '\\', 00H			; `string'
CONST	ENDS
;	COMDAT ??_C@_02MCKKLHBJ@?2?$CC?$AA@
CONST	SEGMENT
??_C@_02MCKKLHBJ@?2?$CC?$AA@ DB '\"', 00H		; `string'
CONST	ENDS
;	COMDAT ??_C@_01BJJEKLCA@?$CC?$AA@
CONST	SEGMENT
??_C@_01BJJEKLCA@?$CC?$AA@ DB '"', 00H			; `string'
CONST	ENDS
;	COMDAT ??_C@_07FKPPGBGM@?$CC?2?$AI?$AM?6?$AN?7?$AA@
CONST	SEGMENT
??_C@_07FKPPGBGM@?$CC?2?$AI?$AM?6?$AN?7?$AA@ DB '"\', 08H, 0cH, 0aH, 0dH, 09H
	DB	00H						; `string'
CONST	ENDS
;	COMDAT xdata$x
xdata$x	SEGMENT
__ehfuncinfo$?valueToQuotedString@Json@@YA?AV?$basic_string@DU?$char_traits@D@std@@V?$allocator@D@2@@std@@PBD@Z DD 019930522H
	DD	06H
	DD	FLAT:__unwindtable$?valueToQuotedString@Json@@YA?AV?$basic_string@DU?$char_traits@D@std@@V?$allocator@D@2@@std@@PBD@Z
	DD	2 DUP(00H)
	DD	2 DUP(00H)
	DD	00H
	DD	01H
__unwindtable$?valueToQuotedString@Json@@YA?AV?$basic_string@DU?$char_traits@D@std@@V?$allocator@D@2@@std@@PBD@Z DD 0ffffffffH
	DD	FLAT:__unwindfunclet$?valueToQuotedString@Json@@YA?AV?$basic_string@DU?$char_traits@D@std@@V?$allocator@D@2@@std@@PBD@Z$2
	DD	00H
	DD	FLAT:__unwindfunclet$?valueToQuotedString@Json@@YA?AV?$basic_string@DU?$char_traits@D@std@@V?$allocator@D@2@@std@@PBD@Z$0
	DD	01H
	DD	FLAT:__unwindfunclet$?valueToQuotedString@Json@@YA?AV?$basic_string@DU?$char_traits@D@std@@V?$allocator@D@2@@std@@PBD@Z$1
	DD	00H
	DD	FLAT:__unwindfunclet$?valueToQuotedString@Json@@YA?AV?$basic_string@DU?$char_traits@D@std@@V?$allocator@D@2@@std@@PBD@Z$3
	DD	03H
	DD	FLAT:__unwindfunclet$?valueToQuotedString@Json@@YA?AV?$basic_string@DU?$char_traits@D@std@@V?$allocator@D@2@@std@@PBD@Z$4
	DD	04H
	DD	FLAT:__unwindfunclet$?valueToQuotedString@Json@@YA?AV?$basic_string@DU?$char_traits@D@std@@V?$allocator@D@2@@std@@PBD@Z$5
; Function compile flags: /Odtp
xdata$x	ENDS
;	COMDAT ?valueToQuotedString@Json@@YA?AV?$basic_string@DU?$char_traits@D@std@@V?$allocator@D@2@@std@@PBD@Z
_TEXT	SEGMENT
tv216 = -324						; size = 4
tv156 = -320						; size = 4
tv136 = -316						; size = 4
tv90 = -312						; size = 4
tv243 = -305						; size = 1
tv240 = -304						; size = 4
tv237 = -300						; size = 4
tv208 = -296						; size = 4
tv220 = -292						; size = 4
tv206 = -288						; size = 4
tv219 = -284						; size = 4
$T62963 = -280						; size = 4
$T62959 = -276						; size = 28
$T62958 = -245						; size = 1
$T62957 = -244						; size = 8
$T62956 = -236						; size = 28
$T62955 = -208						; size = 28
_oss$55866 = -180					; size = 128
_c$55842 = -52						; size = 4
_result$ = -48						; size = 28
__$ArrayPad$ = -20					; size = 4
_maxsize$ = -16						; size = 4
__$EHRec$ = -12						; size = 12
___$ReturnUdt$ = 8					; size = 4
_value$ = 12						; size = 4
?valueToQuotedString@Json@@YA?AV?$basic_string@DU?$char_traits@D@std@@V?$allocator@D@2@@std@@PBD@Z PROC ; Json::valueToQuotedString, COMDAT

; 112  : {

	push	ebp
	mov	ebp, esp
	push	-1
	push	__ehhandler$?valueToQuotedString@Json@@YA?AV?$basic_string@DU?$char_traits@D@std@@V?$allocator@D@2@@std@@PBD@Z
	mov	eax, DWORD PTR fs:0
	push	eax
	sub	esp, 312				; 00000138H
	mov	eax, DWORD PTR ___security_cookie
	xor	eax, ebp
	mov	DWORD PTR __$ArrayPad$[ebp], eax
	push	eax
	lea	eax, DWORD PTR __$EHRec$[ebp]
	mov	DWORD PTR fs:0, eax
	mov	DWORD PTR $T62963[ebp], 0

; 113  :    // Not sure how to handle unicode...
; 114  :    if (strpbrk(value, "\"\\\b\f\n\r\t") == NULL && !containsControlCharacter( value ))

	push	OFFSET ??_C@_07FKPPGBGM@?$CC?2?$AI?$AM?6?$AN?7?$AA@
	mov	eax, DWORD PTR _value$[ebp]
	push	eax
	call	DWORD PTR __imp__strpbrk
	add	esp, 8
	test	eax, eax
	jne	$LN16@valueToQuo
	mov	ecx, DWORD PTR _value$[ebp]
	push	ecx
	call	?containsControlCharacter@Json@@YA_NPBD@Z ; Json::containsControlCharacter
	add	esp, 4
	movzx	edx, al
	test	edx, edx
	jne	$LN16@valueToQuo

; 115  :       return std::string("\"") + value + "\"";

	push	OFFSET ??_C@_01BJJEKLCA@?$CC?$AA@
	mov	eax, DWORD PTR _value$[ebp]
	push	eax
	push	OFFSET ??_C@_01BJJEKLCA@?$CC?$AA@
	lea	ecx, DWORD PTR $T62955[ebp]
	call	DWORD PTR __imp_??0?$basic_string@DU?$char_traits@D@std@@V?$allocator@D@2@@std@@QAE@PBD@Z
	mov	DWORD PTR tv219[ebp], eax
	mov	ecx, DWORD PTR tv219[ebp]
	mov	DWORD PTR tv206[ebp], ecx
	mov	DWORD PTR __$EHRec$[ebp+8], 1
	mov	edx, DWORD PTR tv206[ebp]
	push	edx
	lea	eax, DWORD PTR $T62956[ebp]
	push	eax
	call	DWORD PTR __imp_??$?HDU?$char_traits@D@std@@V?$allocator@D@1@@std@@YA?AV?$basic_string@DU?$char_traits@D@std@@V?$allocator@D@2@@0@ABV10@PBD@Z
	add	esp, 12					; 0000000cH
	mov	DWORD PTR tv220[ebp], eax
	mov	ecx, DWORD PTR tv220[ebp]
	mov	DWORD PTR tv208[ebp], ecx
	mov	BYTE PTR __$EHRec$[ebp+8], 2
	mov	edx, DWORD PTR tv208[ebp]
	push	edx
	mov	eax, DWORD PTR ___$ReturnUdt$[ebp]
	push	eax
	call	DWORD PTR __imp_??$?HDU?$char_traits@D@std@@V?$allocator@D@1@@std@@YA?AV?$basic_string@DU?$char_traits@D@std@@V?$allocator@D@2@@0@ABV10@PBD@Z
	add	esp, 12					; 0000000cH
	mov	ecx, DWORD PTR $T62963[ebp]
	or	ecx, 1
	mov	DWORD PTR $T62963[ebp], ecx
	mov	BYTE PTR __$EHRec$[ebp+8], 1
	lea	ecx, DWORD PTR $T62956[ebp]
	call	DWORD PTR __imp_??1?$basic_string@DU?$char_traits@D@std@@V?$allocator@D@2@@std@@QAE@XZ
	mov	BYTE PTR __$EHRec$[ebp+8], 0
	lea	ecx, DWORD PTR $T62955[ebp]
	call	DWORD PTR __imp_??1?$basic_string@DU?$char_traits@D@std@@V?$allocator@D@2@@std@@QAE@XZ
	mov	eax, DWORD PTR ___$ReturnUdt$[ebp]
	jmp	$LN17@valueToQuo
$LN16@valueToQuo:

; 116  :    // We have to walk value and escape any special characters.
; 117  :    // Appending to std::string is not efficient, but this should be rare.
; 118  :    // (Note: forward slashes are *not* rare, but I am not escaping them.)
; 119  :    unsigned maxsize = strlen(value)*2 + 3; // allescaped+quotes+NULL

	mov	edx, DWORD PTR _value$[ebp]
	mov	DWORD PTR tv237[ebp], edx
	mov	eax, DWORD PTR tv237[ebp]
	add	eax, 1
	mov	DWORD PTR tv240[ebp], eax
$LL26@valueToQuo:
	mov	ecx, DWORD PTR tv237[ebp]
	mov	dl, BYTE PTR [ecx]
	mov	BYTE PTR tv243[ebp], dl
	add	DWORD PTR tv237[ebp], 1
	cmp	BYTE PTR tv243[ebp], 0
	jne	SHORT $LL26@valueToQuo
	mov	eax, DWORD PTR tv237[ebp]
	sub	eax, DWORD PTR tv240[ebp]
	mov	DWORD PTR tv90[ebp], eax
	mov	ecx, DWORD PTR tv90[ebp]
	lea	edx, DWORD PTR [ecx+ecx+3]
	mov	DWORD PTR _maxsize$[ebp], edx

; 120  :    std::string result;

	lea	ecx, DWORD PTR _result$[ebp]
	call	DWORD PTR __imp_??0?$basic_string@DU?$char_traits@D@std@@V?$allocator@D@2@@std@@QAE@XZ
	mov	DWORD PTR __$EHRec$[ebp+8], 3

; 121  :    result.reserve(maxsize); // to avoid lots of mallocs

	mov	eax, DWORD PTR _maxsize$[ebp]
	push	eax
	lea	ecx, DWORD PTR _result$[ebp]
	call	DWORD PTR __imp_?reserve@?$basic_string@DU?$char_traits@D@std@@V?$allocator@D@2@@std@@QAEXI@Z

; 122  :    result += "\"";

	push	OFFSET ??_C@_01BJJEKLCA@?$CC?$AA@
	lea	ecx, DWORD PTR _result$[ebp]
	call	DWORD PTR __imp_??Y?$basic_string@DU?$char_traits@D@std@@V?$allocator@D@2@@std@@QAEAAV01@PBD@Z

; 123  :    for (const char* c=value; *c != 0; ++c)

	mov	ecx, DWORD PTR _value$[ebp]
	mov	DWORD PTR _c$55842[ebp], ecx
	jmp	SHORT $LN15@valueToQuo
$LN14@valueToQuo:
	mov	edx, DWORD PTR _c$55842[ebp]
	add	edx, 1
	mov	DWORD PTR _c$55842[ebp], edx
$LN15@valueToQuo:
	mov	eax, DWORD PTR _c$55842[ebp]
	movsx	ecx, BYTE PTR [eax]
	test	ecx, ecx
	je	$LN13@valueToQuo

; 124  :    {
; 125  :       switch(*c)

	mov	edx, DWORD PTR _c$55842[ebp]
	movsx	eax, BYTE PTR [edx]
	mov	DWORD PTR tv136[ebp], eax
	mov	ecx, DWORD PTR tv136[ebp]
	sub	ecx, 8
	mov	DWORD PTR tv136[ebp], ecx
	cmp	DWORD PTR tv136[ebp], 84		; 00000054H
	ja	$LN3@valueToQuo
	mov	edx, DWORD PTR tv136[ebp]
	movzx	eax, BYTE PTR $LN27@valueToQuo[edx]
	jmp	DWORD PTR $LN29@valueToQuo[eax*4]
$LN10@valueToQuo:

; 126  :       {
; 127  :          case '\"':
; 128  :             result += "\\\"";

	push	OFFSET ??_C@_02MCKKLHBJ@?2?$CC?$AA@
	lea	ecx, DWORD PTR _result$[ebp]
	call	DWORD PTR __imp_??Y?$basic_string@DU?$char_traits@D@std@@V?$allocator@D@2@@std@@QAEAAV01@PBD@Z

; 129  :             break;

	jmp	$LN11@valueToQuo
$LN9@valueToQuo:

; 130  :          case '\\':
; 131  :             result += "\\\\";

	push	OFFSET ??_C@_02HDBGODGB@?2?2?$AA@
	lea	ecx, DWORD PTR _result$[ebp]
	call	DWORD PTR __imp_??Y?$basic_string@DU?$char_traits@D@std@@V?$allocator@D@2@@std@@QAEAAV01@PBD@Z

; 132  :             break;

	jmp	$LN11@valueToQuo
$LN8@valueToQuo:

; 133  :          case '\b':
; 134  :             result += "\\b";

	push	OFFSET ??_C@_02DCNDPIBM@?2b?$AA@
	lea	ecx, DWORD PTR _result$[ebp]
	call	DWORD PTR __imp_??Y?$basic_string@DU?$char_traits@D@std@@V?$allocator@D@2@@std@@QAEAAV01@PBD@Z

; 135  :             break;

	jmp	$LN11@valueToQuo
$LN7@valueToQuo:

; 136  :          case '\f':
; 137  :             result += "\\f";

	push	OFFSET ??_C@_02FGLPDNBI@?2f?$AA@
	lea	ecx, DWORD PTR _result$[ebp]
	call	DWORD PTR __imp_??Y?$basic_string@DU?$char_traits@D@std@@V?$allocator@D@2@@std@@QAEAAV01@PBD@Z

; 138  :             break;

	jmp	$LN11@valueToQuo
$LN6@valueToQuo:

; 139  :          case '\n':
; 140  :             result += "\\n";

	push	OFFSET ??_C@_02JOGGLHBA@?2n?$AA@
	lea	ecx, DWORD PTR _result$[ebp]
	call	DWORD PTR __imp_??Y?$basic_string@DU?$char_traits@D@std@@V?$allocator@D@2@@std@@QAEAAV01@PBD@Z

; 141  :             break;

	jmp	$LN11@valueToQuo
$LN5@valueToQuo:

; 142  :          case '\r':
; 143  :             result += "\\r";

	push	OFFSET ??_C@_02HIBBOKEN@?2r?$AA@
	lea	ecx, DWORD PTR _result$[ebp]
	call	DWORD PTR __imp_??Y?$basic_string@DU?$char_traits@D@std@@V?$allocator@D@2@@std@@QAEAAV01@PBD@Z

; 144  :             break;

	jmp	$LN11@valueToQuo
$LN4@valueToQuo:

; 145  :          case '\t':
; 146  :             result += "\\t";

	push	OFFSET ??_C@_02COELENML@?2t?$AA@
	lea	ecx, DWORD PTR _result$[ebp]
	call	DWORD PTR __imp_??Y?$basic_string@DU?$char_traits@D@std@@V?$allocator@D@2@@std@@QAEAAV01@PBD@Z

; 147  :             break;

	jmp	$LN11@valueToQuo
$LN3@valueToQuo:

; 148  :          //case '/':
; 149  :             // Even though \/ is considered a legal escape in JSON, a bare
; 150  :             // slash is also legal, so I see no reason to escape it.
; 151  :             // (I hope I am not misunderstanding something.
; 152  :             // blep notes: actually escaping \/ may be useful in javascript to avoid </ 
; 153  :             // sequence.
; 154  :             // Should add a flag to allow this compatibility mode and prevent this 
; 155  :             // sequence from occurring.
; 156  :          default:
; 157  :             if ( isControlCharacter( *c ) )

	mov	ecx, DWORD PTR _c$55842[ebp]
	movzx	edx, BYTE PTR [ecx]
	push	edx
	call	?isControlCharacter@Json@@YA_ND@Z	; Json::isControlCharacter
	add	esp, 4
	movzx	eax, al
	test	eax, eax
	je	$LN2@valueToQuo

; 158  :             {
; 159  :                std::ostringstream oss;

	push	1
	push	2
	lea	ecx, DWORD PTR _oss$55866[ebp]
	call	DWORD PTR __imp_??0?$basic_ostringstream@DU?$char_traits@D@std@@V?$allocator@D@2@@std@@QAE@H@Z
	mov	BYTE PTR __$EHRec$[ebp+8], 4

; 160  :                oss << "\\u" << std::hex << std::uppercase << std::setfill('0') << std::setw(4) << static_cast<int>(*c);

	mov	ecx, DWORD PTR _c$55842[ebp]
	movsx	edx, BYTE PTR [ecx]
	push	edx
	push	4
	lea	eax, DWORD PTR $T62957[ebp]
	push	eax
	call	DWORD PTR __imp_?setw@std@@YA?AU?$_Smanip@H@1@H@Z
	add	esp, 8
	push	eax
	push	48					; 00000030H
	lea	ecx, DWORD PTR $T62958[ebp]
	push	ecx
	call	??$setfill@D@std@@YA?AU?$_Fillobj@D@0@D@Z ; std::setfill<char>
	add	esp, 8
	push	eax
	push	OFFSET ?uppercase@std@@YAAAVios_base@1@AAV21@@Z ; std::uppercase
	push	OFFSET ?hex@std@@YAAAVios_base@1@AAV21@@Z ; std::hex
	push	OFFSET ??_C@_02DHFAHMIK@?2u?$AA@
	lea	edx, DWORD PTR _oss$55866[ebp]
	push	edx
	call	??$?6U?$char_traits@D@std@@@std@@YAAAV?$basic_ostream@DU?$char_traits@D@std@@@0@AAV10@PBD@Z ; std::operator<<<std::char_traits<char> >
	add	esp, 8
	mov	ecx, eax
	call	DWORD PTR __imp_??6?$basic_ostream@DU?$char_traits@D@std@@@std@@QAEAAV01@P6AAAVios_base@1@AAV21@@Z@Z
	mov	ecx, eax
	call	DWORD PTR __imp_??6?$basic_ostream@DU?$char_traits@D@std@@@std@@QAEAAV01@P6AAAVios_base@1@AAV21@@Z@Z
	push	eax
	call	??$?6DU?$char_traits@D@std@@@std@@YAAAV?$basic_ostream@DU?$char_traits@D@std@@@0@AAV10@ABU?$_Fillobj@D@0@@Z ; std::operator<<<char,std::char_traits<char> >
	add	esp, 8
	push	eax
	call	??$?6DU?$char_traits@D@std@@H@std@@YAAAV?$basic_ostream@DU?$char_traits@D@std@@@0@AAV10@ABU?$_Smanip@H@0@@Z ; std::operator<<<char,std::char_traits<char>,int>
	add	esp, 8
	mov	ecx, eax
	call	DWORD PTR __imp_??6?$basic_ostream@DU?$char_traits@D@std@@@std@@QAEAAV01@H@Z

; 161  :                result += oss.str();

	lea	eax, DWORD PTR $T62959[ebp]
	push	eax
	lea	ecx, DWORD PTR _oss$55866[ebp]
	call	DWORD PTR __imp_?str@?$basic_ostringstream@DU?$char_traits@D@std@@V?$allocator@D@2@@std@@QBE?AV?$basic_string@DU?$char_traits@D@std@@V?$allocator@D@2@@2@XZ
	mov	DWORD PTR tv156[ebp], eax
	mov	ecx, DWORD PTR tv156[ebp]
	mov	DWORD PTR tv216[ebp], ecx
	mov	BYTE PTR __$EHRec$[ebp+8], 5
	mov	edx, DWORD PTR tv216[ebp]
	push	edx
	lea	ecx, DWORD PTR _result$[ebp]
	call	DWORD PTR __imp_??Y?$basic_string@DU?$char_traits@D@std@@V?$allocator@D@2@@std@@QAEAAV01@ABV01@@Z
	mov	BYTE PTR __$EHRec$[ebp+8], 4
	lea	ecx, DWORD PTR $T62959[ebp]
	call	DWORD PTR __imp_??1?$basic_string@DU?$char_traits@D@std@@V?$allocator@D@2@@std@@QAE@XZ

; 162  :             }

	mov	BYTE PTR __$EHRec$[ebp+8], 3
	lea	ecx, DWORD PTR _oss$55866[ebp]
	call	DWORD PTR __imp_??_D?$basic_ostringstream@DU?$char_traits@D@std@@V?$allocator@D@2@@std@@QAEXXZ

; 163  :             else

	jmp	SHORT $LN11@valueToQuo
$LN2@valueToQuo:

; 164  :             {
; 165  :                result += *c;

	mov	eax, DWORD PTR _c$55842[ebp]
	movzx	ecx, BYTE PTR [eax]
	push	ecx
	lea	ecx, DWORD PTR _result$[ebp]
	call	DWORD PTR __imp_??Y?$basic_string@DU?$char_traits@D@std@@V?$allocator@D@2@@std@@QAEAAV01@D@Z
$LN11@valueToQuo:

; 166  :             }
; 167  :             break;
; 168  :       }
; 169  :    }

	jmp	$LN14@valueToQuo
$LN13@valueToQuo:

; 170  :    result += "\"";

	push	OFFSET ??_C@_01BJJEKLCA@?$CC?$AA@
	lea	ecx, DWORD PTR _result$[ebp]
	call	DWORD PTR __imp_??Y?$basic_string@DU?$char_traits@D@std@@V?$allocator@D@2@@std@@QAEAAV01@PBD@Z

; 171  :    return result;

	lea	edx, DWORD PTR _result$[ebp]
	push	edx
	mov	ecx, DWORD PTR ___$ReturnUdt$[ebp]
	call	DWORD PTR __imp_??0?$basic_string@DU?$char_traits@D@std@@V?$allocator@D@2@@std@@QAE@ABV01@@Z
	mov	eax, DWORD PTR $T62963[ebp]
	or	eax, 1
	mov	DWORD PTR $T62963[ebp], eax
	mov	BYTE PTR __$EHRec$[ebp+8], 0
	lea	ecx, DWORD PTR _result$[ebp]
	call	DWORD PTR __imp_??1?$basic_string@DU?$char_traits@D@std@@V?$allocator@D@2@@std@@QAE@XZ
	mov	eax, DWORD PTR ___$ReturnUdt$[ebp]
$LN17@valueToQuo:

; 172  : }

	mov	ecx, DWORD PTR __$EHRec$[ebp]
	mov	DWORD PTR fs:0, ecx
	pop	ecx
	mov	ecx, DWORD PTR __$ArrayPad$[ebp]
	xor	ecx, ebp
	call	@__security_check_cookie@4
	mov	esp, ebp
	pop	ebp
	ret	0
	npad	2
$LN29@valueToQuo:
	DD	$LN8@valueToQuo
	DD	$LN4@valueToQuo
	DD	$LN6@valueToQuo
	DD	$LN7@valueToQuo
	DD	$LN5@valueToQuo
	DD	$LN10@valueToQuo
	DD	$LN9@valueToQuo
	DD	$LN3@valueToQuo
$LN27@valueToQuo:
	DB	0
	DB	1
	DB	2
	DB	7
	DB	3
	DB	4
	DB	7
	DB	7
	DB	7
	DB	7
	DB	7
	DB	7
	DB	7
	DB	7
	DB	7
	DB	7
	DB	7
	DB	7
	DB	7
	DB	7
	DB	7
	DB	7
	DB	7
	DB	7
	DB	7
	DB	7
	DB	5
	DB	7
	DB	7
	DB	7
	DB	7
	DB	7
	DB	7
	DB	7
	DB	7
	DB	7
	DB	7
	DB	7
	DB	7
	DB	7
	DB	7
	DB	7
	DB	7
	DB	7
	DB	7
	DB	7
	DB	7
	DB	7
	DB	7
	DB	7
	DB	7
	DB	7
	DB	7
	DB	7
	DB	7
	DB	7
	DB	7
	DB	7
	DB	7
	DB	7
	DB	7
	DB	7
	DB	7
	DB	7
	DB	7
	DB	7
	DB	7
	DB	7
	DB	7
	DB	7
	DB	7
	DB	7
	DB	7
	DB	7
	DB	7
	DB	7
	DB	7
	DB	7
	DB	7
	DB	7
	DB	7
	DB	7
	DB	7
	DB	7
	DB	6
_TEXT	ENDS
;	COMDAT text$x
text$x	SEGMENT
__unwindfunclet$?valueToQuotedString@Json@@YA?AV?$basic_string@DU?$char_traits@D@std@@V?$allocator@D@2@@std@@PBD@Z$0:
	lea	ecx, DWORD PTR $T62955[ebp]
	jmp	DWORD PTR __imp_??1?$basic_string@DU?$char_traits@D@std@@V?$allocator@D@2@@std@@QAE@XZ
__unwindfunclet$?valueToQuotedString@Json@@YA?AV?$basic_string@DU?$char_traits@D@std@@V?$allocator@D@2@@std@@PBD@Z$1:
	lea	ecx, DWORD PTR $T62956[ebp]
	jmp	DWORD PTR __imp_??1?$basic_string@DU?$char_traits@D@std@@V?$allocator@D@2@@std@@QAE@XZ
__unwindfunclet$?valueToQuotedString@Json@@YA?AV?$basic_string@DU?$char_traits@D@std@@V?$allocator@D@2@@std@@PBD@Z$2:
	mov	eax, DWORD PTR $T62963[ebp]
	and	eax, 1
	je	$LN22@valueToQuo
	and	DWORD PTR $T62963[ebp], -2		; fffffffeH
	mov	ecx, DWORD PTR ___$ReturnUdt$[ebp]
	jmp	DWORD PTR __imp_??1?$basic_string@DU?$char_traits@D@std@@V?$allocator@D@2@@std@@QAE@XZ
$LN22@valueToQuo:
	ret	0
__unwindfunclet$?valueToQuotedString@Json@@YA?AV?$basic_string@DU?$char_traits@D@std@@V?$allocator@D@2@@std@@PBD@Z$3:
	lea	ecx, DWORD PTR _result$[ebp]
	jmp	DWORD PTR __imp_??1?$basic_string@DU?$char_traits@D@std@@V?$allocator@D@2@@std@@QAE@XZ
__unwindfunclet$?valueToQuotedString@Json@@YA?AV?$basic_string@DU?$char_traits@D@std@@V?$allocator@D@2@@std@@PBD@Z$4:
	lea	ecx, DWORD PTR _oss$55866[ebp]
	jmp	DWORD PTR __imp_??_D?$basic_ostringstream@DU?$char_traits@D@std@@V?$allocator@D@2@@std@@QAEXXZ
__unwindfunclet$?valueToQuotedString@Json@@YA?AV?$basic_string@DU?$char_traits@D@std@@V?$allocator@D@2@@std@@PBD@Z$5:
	lea	ecx, DWORD PTR $T62959[ebp]
	jmp	DWORD PTR __imp_??1?$basic_string@DU?$char_traits@D@std@@V?$allocator@D@2@@std@@QAE@XZ
__ehhandler$?valueToQuotedString@Json@@YA?AV?$basic_string@DU?$char_traits@D@std@@V?$allocator@D@2@@std@@PBD@Z:
	mov	edx, DWORD PTR [esp+8]
	lea	eax, DWORD PTR [edx+12]
	mov	ecx, DWORD PTR [edx-316]
	xor	ecx, eax
	call	@__security_check_cookie@4
	mov	ecx, DWORD PTR [edx-8]
	xor	ecx, eax
	call	@__security_check_cookie@4
	mov	eax, OFFSET __ehfuncinfo$?valueToQuotedString@Json@@YA?AV?$basic_string@DU?$char_traits@D@std@@V?$allocator@D@2@@std@@PBD@Z
	jmp	___CxxFrameHandler3
text$x	ENDS
?valueToQuotedString@Json@@YA?AV?$basic_string@DU?$char_traits@D@std@@V?$allocator@D@2@@std@@PBD@Z ENDP ; Json::valueToQuotedString
EXTRN	__imp_?setf@ios_base@std@@QAEHHH@Z:PROC
; Function compile flags: /Odtp
; File f:\tools\vs2008\vc\include\ios
;	COMDAT ?hex@std@@YAAAVios_base@1@AAV21@@Z
_TEXT	SEGMENT
__Iosbase$ = 8						; size = 4
?hex@std@@YAAAVios_base@1@AAV21@@Z PROC			; std::hex, COMDAT

; 190  : 	{	// set basefield to hex

	push	ebp
	mov	ebp, esp

; 191  : 	_Iosbase.setf(ios_base::hex, ios_base::basefield);

	push	3584					; 00000e00H
	push	2048					; 00000800H
	mov	ecx, DWORD PTR __Iosbase$[ebp]
	call	DWORD PTR __imp_?setf@ios_base@std@@QAEHHH@Z

; 192  : 	return (_Iosbase);

	mov	eax, DWORD PTR __Iosbase$[ebp]

; 193  : 	}

	pop	ebp
	ret	0
?hex@std@@YAAAVios_base@1@AAV21@@Z ENDP			; std::hex
_TEXT	ENDS
EXTRN	__imp_?setf@ios_base@std@@QAEHH@Z:PROC
; Function compile flags: /Odtp
;	COMDAT ?uppercase@std@@YAAAVios_base@1@AAV21@@Z
_TEXT	SEGMENT
__Iosbase$ = 8						; size = 4
?uppercase@std@@YAAAVios_base@1@AAV21@@Z PROC		; std::uppercase, COMDAT

; 307  : 	{	// set uppercase

	push	ebp
	mov	ebp, esp

; 308  : 	_Iosbase.setf(ios_base::uppercase);

	push	4
	mov	ecx, DWORD PTR __Iosbase$[ebp]
	call	DWORD PTR __imp_?setf@ios_base@std@@QAEHH@Z

; 309  : 	return (_Iosbase);

	mov	eax, DWORD PTR __Iosbase$[ebp]

; 310  : 	}

	pop	ebp
	ret	0
?uppercase@std@@YAAAVios_base@1@AAV21@@Z ENDP		; std::uppercase
; Function compile flags: /Odtp
; File f:\3dtetris\trunk\librarys\bohge\external\json\src\lib_json\json_writer.cpp
_TEXT	ENDS
;	COMDAT ?isControlCharacter@Json@@YA_ND@Z
_TEXT	SEGMENT
tv68 = -4						; size = 4
_ch$ = 8						; size = 1
?isControlCharacter@Json@@YA_ND@Z PROC			; Json::isControlCharacter, COMDAT

; 17   : {

	push	ebp
	mov	ebp, esp
	push	ecx

; 18   :    return ch > 0 && ch <= 0x1F;

	movsx	eax, BYTE PTR _ch$[ebp]
	test	eax, eax
	jle	SHORT $LN3@isControlC
	movsx	ecx, BYTE PTR _ch$[ebp]
	cmp	ecx, 31					; 0000001fH
	jg	SHORT $LN3@isControlC
	mov	DWORD PTR tv68[ebp], 1
	jmp	SHORT $LN4@isControlC
$LN3@isControlC:
	mov	DWORD PTR tv68[ebp], 0
$LN4@isControlC:
	mov	al, BYTE PTR tv68[ebp]

; 19   : }

	mov	esp, ebp
	pop	ebp
	ret	0
?isControlCharacter@Json@@YA_ND@Z ENDP			; Json::isControlCharacter
; Function compile flags: /Odtp
_TEXT	ENDS
;	COMDAT ?containsControlCharacter@Json@@YA_NPBD@Z
_TEXT	SEGMENT
tv68 = -1						; size = 1
_str$ = 8						; size = 4
?containsControlCharacter@Json@@YA_NPBD@Z PROC		; Json::containsControlCharacter, COMDAT

; 22   : {

	push	ebp
	mov	ebp, esp
	push	ecx
$LN3@containsCo:

; 23   :    while ( *str ) 

	mov	eax, DWORD PTR _str$[ebp]
	movsx	ecx, BYTE PTR [eax]
	test	ecx, ecx
	je	SHORT $LN2@containsCo

; 24   :    {
; 25   :       if ( isControlCharacter( *(str++) ) )

	mov	edx, DWORD PTR _str$[ebp]
	mov	al, BYTE PTR [edx]
	mov	BYTE PTR tv68[ebp], al
	movzx	ecx, BYTE PTR tv68[ebp]
	push	ecx
	call	?isControlCharacter@Json@@YA_ND@Z	; Json::isControlCharacter
	add	esp, 4
	movzx	edx, al
	mov	eax, DWORD PTR _str$[ebp]
	add	eax, 1
	mov	DWORD PTR _str$[ebp], eax
	test	edx, edx
	je	SHORT $LN1@containsCo

; 26   :          return true;

	mov	al, 1
	jmp	SHORT $LN4@containsCo
$LN1@containsCo:

; 27   :    }

	jmp	SHORT $LN3@containsCo
$LN2@containsCo:

; 28   :    return false;

	xor	al, al
$LN4@containsCo:

; 29   : }

	mov	esp, ebp
	pop	ebp
	ret	0
?containsControlCharacter@Json@@YA_NPBD@Z ENDP		; Json::containsControlCharacter
_TEXT	ENDS
PUBLIC	??_7Writer@Json@@6B@				; Json::Writer::`vftable'
PUBLIC	??1Writer@Json@@UAE@XZ				; Json::Writer::~Writer
PUBLIC	??_R4Writer@Json@@6B@				; Json::Writer::`RTTI Complete Object Locator'
PUBLIC	??_R0?AVWriter@Json@@@8				; Json::Writer `RTTI Type Descriptor'
PUBLIC	??_R3Writer@Json@@8				; Json::Writer::`RTTI Class Hierarchy Descriptor'
PUBLIC	??_R2Writer@Json@@8				; Json::Writer::`RTTI Base Class Array'
PUBLIC	??_R1A@?0A@EA@Writer@Json@@8			; Json::Writer::`RTTI Base Class Descriptor at (0,-1,0,64)'
EXTRN	??_7type_info@@6B@:QWORD			; type_info::`vftable'
EXTRN	??_EWriter@Json@@UAEPAXI@Z:PROC			; Json::Writer::`vector deleting destructor'
EXTRN	__purecall:PROC
;	COMDAT ??_R1A@?0A@EA@Writer@Json@@8
rdata$r	SEGMENT
??_R1A@?0A@EA@Writer@Json@@8 DD FLAT:??_R0?AVWriter@Json@@@8 ; Json::Writer::`RTTI Base Class Descriptor at (0,-1,0,64)'
	DD	00H
	DD	00H
	DD	0ffffffffH
	DD	00H
	DD	040H
	DD	FLAT:??_R3Writer@Json@@8
rdata$r	ENDS
;	COMDAT ??_R2Writer@Json@@8
rdata$r	SEGMENT
??_R2Writer@Json@@8 DD FLAT:??_R1A@?0A@EA@Writer@Json@@8 ; Json::Writer::`RTTI Base Class Array'
rdata$r	ENDS
;	COMDAT ??_R3Writer@Json@@8
rdata$r	SEGMENT
??_R3Writer@Json@@8 DD 00H				; Json::Writer::`RTTI Class Hierarchy Descriptor'
	DD	00H
	DD	01H
	DD	FLAT:??_R2Writer@Json@@8
rdata$r	ENDS
;	COMDAT ??_R0?AVWriter@Json@@@8
_DATA	SEGMENT
??_R0?AVWriter@Json@@@8 DD FLAT:??_7type_info@@6B@	; Json::Writer `RTTI Type Descriptor'
	DD	00H
	DB	'.?AVWriter@Json@@', 00H
_DATA	ENDS
;	COMDAT ??_R4Writer@Json@@6B@
rdata$r	SEGMENT
??_R4Writer@Json@@6B@ DD 00H				; Json::Writer::`RTTI Complete Object Locator'
	DD	00H
	DD	00H
	DD	FLAT:??_R0?AVWriter@Json@@@8
	DD	FLAT:??_R3Writer@Json@@8
rdata$r	ENDS
;	COMDAT ??_7Writer@Json@@6B@
CONST	SEGMENT
??_7Writer@Json@@6B@ DD FLAT:??_R4Writer@Json@@6B@	; Json::Writer::`vftable'
	DD	FLAT:??_EWriter@Json@@UAEPAXI@Z
	DD	FLAT:__purecall
; Function compile flags: /Odtp
CONST	ENDS
;	COMDAT ??1Writer@Json@@UAE@XZ
_TEXT	SEGMENT
_this$ = -4						; size = 4
??1Writer@Json@@UAE@XZ PROC				; Json::Writer::~Writer, COMDAT
; _this$ = ecx

; 177  : {

	push	ebp
	mov	ebp, esp
	push	ecx
	mov	DWORD PTR _this$[ebp], ecx
	mov	eax, DWORD PTR _this$[ebp]
	mov	DWORD PTR [eax], OFFSET ??_7Writer@Json@@6B@

; 178  : }

	mov	esp, ebp
	pop	ebp
	ret	0
??1Writer@Json@@UAE@XZ ENDP				; Json::Writer::~Writer
_TEXT	ENDS
EXTRN	??3@YAXPAX@Z:PROC				; operator delete
; Function compile flags: /Odtp
;	COMDAT ??_GWriter@Json@@UAEPAXI@Z
_TEXT	SEGMENT
_this$ = -4						; size = 4
___flags$ = 8						; size = 4
??_GWriter@Json@@UAEPAXI@Z PROC				; Json::Writer::`scalar deleting destructor', COMDAT
; _this$ = ecx
	push	ebp
	mov	ebp, esp
	push	ecx
	mov	DWORD PTR _this$[ebp], ecx
	mov	ecx, DWORD PTR _this$[ebp]
	call	??1Writer@Json@@UAE@XZ			; Json::Writer::~Writer
	mov	eax, DWORD PTR ___flags$[ebp]
	and	eax, 1
	je	SHORT $LN1@scalar
	mov	ecx, DWORD PTR _this$[ebp]
	push	ecx
	call	??3@YAXPAX@Z				; operator delete
	add	esp, 4
$LN1@scalar:
	mov	eax, DWORD PTR _this$[ebp]
	mov	esp, ebp
	pop	ebp
	ret	4
??_GWriter@Json@@UAEPAXI@Z ENDP				; Json::Writer::`scalar deleting destructor'
_TEXT	ENDS
PUBLIC	??_7FastWriter@Json@@6B@			; Json::FastWriter::`vftable'
PUBLIC	??0Writer@Json@@QAE@XZ				; Json::Writer::Writer
PUBLIC	??0FastWriter@Json@@QAE@XZ			; Json::FastWriter::FastWriter
PUBLIC	??_R4FastWriter@Json@@6B@			; Json::FastWriter::`RTTI Complete Object Locator'
PUBLIC	??_R0?AVFastWriter@Json@@@8			; Json::FastWriter `RTTI Type Descriptor'
PUBLIC	??_R3FastWriter@Json@@8				; Json::FastWriter::`RTTI Class Hierarchy Descriptor'
PUBLIC	??_R2FastWriter@Json@@8				; Json::FastWriter::`RTTI Base Class Array'
PUBLIC	??_R1A@?0A@EA@FastWriter@Json@@8		; Json::FastWriter::`RTTI Base Class Descriptor at (0,-1,0,64)'
PUBLIC	?write@FastWriter@Json@@UAE?AV?$basic_string@DU?$char_traits@D@std@@V?$allocator@D@2@@std@@ABVValue@2@@Z ; Json::FastWriter::write
EXTRN	??_EFastWriter@Json@@UAEPAXI@Z:PROC		; Json::FastWriter::`vector deleting destructor'
;	COMDAT ??_R1A@?0A@EA@FastWriter@Json@@8
rdata$r	SEGMENT
??_R1A@?0A@EA@FastWriter@Json@@8 DD FLAT:??_R0?AVFastWriter@Json@@@8 ; Json::FastWriter::`RTTI Base Class Descriptor at (0,-1,0,64)'
	DD	01H
	DD	00H
	DD	0ffffffffH
	DD	00H
	DD	040H
	DD	FLAT:??_R3FastWriter@Json@@8
rdata$r	ENDS
;	COMDAT ??_R2FastWriter@Json@@8
rdata$r	SEGMENT
??_R2FastWriter@Json@@8 DD FLAT:??_R1A@?0A@EA@FastWriter@Json@@8 ; Json::FastWriter::`RTTI Base Class Array'
	DD	FLAT:??_R1A@?0A@EA@Writer@Json@@8
rdata$r	ENDS
;	COMDAT ??_R3FastWriter@Json@@8
rdata$r	SEGMENT
??_R3FastWriter@Json@@8 DD 00H				; Json::FastWriter::`RTTI Class Hierarchy Descriptor'
	DD	00H
	DD	02H
	DD	FLAT:??_R2FastWriter@Json@@8
rdata$r	ENDS
;	COMDAT ??_R0?AVFastWriter@Json@@@8
_DATA	SEGMENT
??_R0?AVFastWriter@Json@@@8 DD FLAT:??_7type_info@@6B@	; Json::FastWriter `RTTI Type Descriptor'
	DD	00H
	DB	'.?AVFastWriter@Json@@', 00H
_DATA	ENDS
;	COMDAT ??_R4FastWriter@Json@@6B@
rdata$r	SEGMENT
??_R4FastWriter@Json@@6B@ DD 00H			; Json::FastWriter::`RTTI Complete Object Locator'
	DD	00H
	DD	00H
	DD	FLAT:??_R0?AVFastWriter@Json@@@8
	DD	FLAT:??_R3FastWriter@Json@@8
rdata$r	ENDS
;	COMDAT ??_7FastWriter@Json@@6B@
CONST	SEGMENT
??_7FastWriter@Json@@6B@ DD FLAT:??_R4FastWriter@Json@@6B@ ; Json::FastWriter::`vftable'
	DD	FLAT:??_EFastWriter@Json@@UAEPAXI@Z
	DD	FLAT:?write@FastWriter@Json@@UAE?AV?$basic_string@DU?$char_traits@D@std@@V?$allocator@D@2@@std@@ABVValue@2@@Z
CONST	ENDS
;	COMDAT xdata$x
xdata$x	SEGMENT
__unwindtable$??0FastWriter@Json@@QAE@XZ DD 0ffffffffH
	DD	FLAT:__unwindfunclet$??0FastWriter@Json@@QAE@XZ$0
__ehfuncinfo$??0FastWriter@Json@@QAE@XZ DD 019930522H
	DD	01H
	DD	FLAT:__unwindtable$??0FastWriter@Json@@QAE@XZ
	DD	2 DUP(00H)
	DD	2 DUP(00H)
	DD	00H
	DD	01H
; Function compile flags: /Odtp
xdata$x	ENDS
;	COMDAT ??0FastWriter@Json@@QAE@XZ
_TEXT	SEGMENT
_this$ = -16						; size = 4
__$EHRec$ = -12						; size = 12
??0FastWriter@Json@@QAE@XZ PROC				; Json::FastWriter::FastWriter, COMDAT
; _this$ = ecx

; 186  : {

	push	ebp
	mov	ebp, esp
	push	-1
	push	__ehhandler$??0FastWriter@Json@@QAE@XZ
	mov	eax, DWORD PTR fs:0
	push	eax
	push	ecx
	mov	eax, DWORD PTR ___security_cookie
	xor	eax, ebp
	push	eax
	lea	eax, DWORD PTR __$EHRec$[ebp]
	mov	DWORD PTR fs:0, eax
	mov	DWORD PTR _this$[ebp], ecx
	mov	ecx, DWORD PTR _this$[ebp]
	call	??0Writer@Json@@QAE@XZ
	mov	DWORD PTR __$EHRec$[ebp+8], 0
	mov	eax, DWORD PTR _this$[ebp]
	mov	DWORD PTR [eax], OFFSET ??_7FastWriter@Json@@6B@
	mov	ecx, DWORD PTR _this$[ebp]
	add	ecx, 4
	call	DWORD PTR __imp_??0?$basic_string@DU?$char_traits@D@std@@V?$allocator@D@2@@std@@QAE@XZ
	mov	ecx, DWORD PTR _this$[ebp]
	mov	BYTE PTR [ecx+32], 0

; 187  : }

	mov	DWORD PTR __$EHRec$[ebp+8], -1
	mov	eax, DWORD PTR _this$[ebp]
	mov	ecx, DWORD PTR __$EHRec$[ebp]
	mov	DWORD PTR fs:0, ecx
	pop	ecx
	mov	esp, ebp
	pop	ebp
	ret	0
_TEXT	ENDS
;	COMDAT text$x
text$x	SEGMENT
__unwindfunclet$??0FastWriter@Json@@QAE@XZ$0:
	mov	ecx, DWORD PTR _this$[ebp]
	jmp	??1Writer@Json@@UAE@XZ			; Json::Writer::~Writer
__ehhandler$??0FastWriter@Json@@QAE@XZ:
	mov	edx, DWORD PTR [esp+8]
	lea	eax, DWORD PTR [edx+12]
	mov	ecx, DWORD PTR [edx-8]
	xor	ecx, eax
	call	@__security_check_cookie@4
	mov	eax, OFFSET __ehfuncinfo$??0FastWriter@Json@@QAE@XZ
	jmp	___CxxFrameHandler3
text$x	ENDS
??0FastWriter@Json@@QAE@XZ ENDP				; Json::FastWriter::FastWriter
PUBLIC	??1FastWriter@Json@@UAE@XZ			; Json::FastWriter::~FastWriter
; Function compile flags: /Odtp
;	COMDAT ??_GFastWriter@Json@@UAEPAXI@Z
_TEXT	SEGMENT
_this$ = -4						; size = 4
___flags$ = 8						; size = 4
??_GFastWriter@Json@@UAEPAXI@Z PROC			; Json::FastWriter::`scalar deleting destructor', COMDAT
; _this$ = ecx
	push	ebp
	mov	ebp, esp
	push	ecx
	mov	DWORD PTR _this$[ebp], ecx
	mov	ecx, DWORD PTR _this$[ebp]
	call	??1FastWriter@Json@@UAE@XZ		; Json::FastWriter::~FastWriter
	mov	eax, DWORD PTR ___flags$[ebp]
	and	eax, 1
	je	SHORT $LN1@scalar@2
	mov	ecx, DWORD PTR _this$[ebp]
	push	ecx
	call	??3@YAXPAX@Z				; operator delete
	add	esp, 4
$LN1@scalar@2:
	mov	eax, DWORD PTR _this$[ebp]
	mov	esp, ebp
	pop	ebp
	ret	4
??_GFastWriter@Json@@UAEPAXI@Z ENDP			; Json::FastWriter::`scalar deleting destructor'
_TEXT	ENDS
;	COMDAT xdata$x
; File f:\3dtetris\trunk\librarys\bohge\external\json\include\json\writer.h
xdata$x	SEGMENT
__unwindtable$??1FastWriter@Json@@UAE@XZ DD 0ffffffffH
	DD	FLAT:__unwindfunclet$??1FastWriter@Json@@UAE@XZ$0
__ehfuncinfo$??1FastWriter@Json@@UAE@XZ DD 019930522H
	DD	01H
	DD	FLAT:__unwindtable$??1FastWriter@Json@@UAE@XZ
	DD	2 DUP(00H)
	DD	2 DUP(00H)
	DD	00H
	DD	01H
; Function compile flags: /Odtp
xdata$x	ENDS
;	COMDAT ??1FastWriter@Json@@UAE@XZ
_TEXT	SEGMENT
_this$ = -16						; size = 4
__$EHRec$ = -12						; size = 12
??1FastWriter@Json@@UAE@XZ PROC				; Json::FastWriter::~FastWriter, COMDAT
; _this$ = ecx

; 33   :       virtual ~FastWriter(){}

	push	ebp
	mov	ebp, esp
	push	-1
	push	__ehhandler$??1FastWriter@Json@@UAE@XZ
	mov	eax, DWORD PTR fs:0
	push	eax
	push	ecx
	mov	eax, DWORD PTR ___security_cookie
	xor	eax, ebp
	push	eax
	lea	eax, DWORD PTR __$EHRec$[ebp]
	mov	DWORD PTR fs:0, eax
	mov	DWORD PTR _this$[ebp], ecx
	mov	eax, DWORD PTR _this$[ebp]
	mov	DWORD PTR [eax], OFFSET ??_7FastWriter@Json@@6B@
	mov	DWORD PTR __$EHRec$[ebp+8], 0
	mov	ecx, DWORD PTR _this$[ebp]
	add	ecx, 4
	call	DWORD PTR __imp_??1?$basic_string@DU?$char_traits@D@std@@V?$allocator@D@2@@std@@QAE@XZ
	mov	DWORD PTR __$EHRec$[ebp+8], -1
	mov	ecx, DWORD PTR _this$[ebp]
	call	??1Writer@Json@@UAE@XZ			; Json::Writer::~Writer
	mov	ecx, DWORD PTR __$EHRec$[ebp]
	mov	DWORD PTR fs:0, ecx
	pop	ecx
	mov	esp, ebp
	pop	ebp
	ret	0
_TEXT	ENDS
;	COMDAT text$x
text$x	SEGMENT
__unwindfunclet$??1FastWriter@Json@@UAE@XZ$0:
	mov	ecx, DWORD PTR _this$[ebp]
	jmp	??1Writer@Json@@UAE@XZ			; Json::Writer::~Writer
__ehhandler$??1FastWriter@Json@@UAE@XZ:
	mov	edx, DWORD PTR [esp+8]
	lea	eax, DWORD PTR [edx+12]
	mov	ecx, DWORD PTR [edx-8]
	xor	ecx, eax
	call	@__security_check_cookie@4
	mov	eax, OFFSET __ehfuncinfo$??1FastWriter@Json@@UAE@XZ
	jmp	___CxxFrameHandler3
text$x	ENDS
??1FastWriter@Json@@UAE@XZ ENDP				; Json::FastWriter::~FastWriter
; Function compile flags: /Odtp
;	COMDAT ??0Writer@Json@@QAE@XZ
_TEXT	SEGMENT
_this$ = -4						; size = 4
??0Writer@Json@@QAE@XZ PROC				; Json::Writer::Writer, COMDAT
; _this$ = ecx
	push	ebp
	mov	ebp, esp
	push	ecx
	mov	DWORD PTR _this$[ebp], ecx
	mov	eax, DWORD PTR _this$[ebp]
	mov	DWORD PTR [eax], OFFSET ??_7Writer@Json@@6B@
	mov	eax, DWORD PTR _this$[ebp]
	mov	esp, ebp
	pop	ebp
	ret	0
??0Writer@Json@@QAE@XZ ENDP				; Json::Writer::Writer
_TEXT	ENDS
PUBLIC	?enableYAMLCompatibility@FastWriter@Json@@QAEXXZ ; Json::FastWriter::enableYAMLCompatibility
; Function compile flags: /Odtp
; File f:\3dtetris\trunk\librarys\bohge\external\json\src\lib_json\json_writer.cpp
;	COMDAT ?enableYAMLCompatibility@FastWriter@Json@@QAEXXZ
_TEXT	SEGMENT
_this$ = -4						; size = 4
?enableYAMLCompatibility@FastWriter@Json@@QAEXXZ PROC	; Json::FastWriter::enableYAMLCompatibility, COMDAT
; _this$ = ecx

; 192  : {

	push	ebp
	mov	ebp, esp
	push	ecx
	mov	DWORD PTR _this$[ebp], ecx

; 193  :    yamlCompatiblityEnabled_ = true;

	mov	eax, DWORD PTR _this$[ebp]
	mov	BYTE PTR [eax+32], 1

; 194  : }

	mov	esp, ebp
	pop	ebp
	ret	0
?enableYAMLCompatibility@FastWriter@Json@@QAEXXZ ENDP	; Json::FastWriter::enableYAMLCompatibility
_TEXT	ENDS
PUBLIC	??_C@_01EEMJAFIK@?6?$AA@			; `string'
PUBLIC	?writeValue@FastWriter@Json@@AAEXABVValue@2@@Z	; Json::FastWriter::writeValue
PUBLIC	??_C@_00CNPNBAHC@?$AA@				; `string'
EXTRN	__imp_??4?$basic_string@DU?$char_traits@D@std@@V?$allocator@D@2@@std@@QAEAAV01@PBD@Z:PROC
;	COMDAT ??_C@_01EEMJAFIK@?6?$AA@
CONST	SEGMENT
??_C@_01EEMJAFIK@?6?$AA@ DB 0aH, 00H			; `string'
CONST	ENDS
;	COMDAT ??_C@_00CNPNBAHC@?$AA@
CONST	SEGMENT
??_C@_00CNPNBAHC@?$AA@ DB 00H				; `string'
; Function compile flags: /Odtp
CONST	ENDS
;	COMDAT ?write@FastWriter@Json@@UAE?AV?$basic_string@DU?$char_traits@D@std@@V?$allocator@D@2@@std@@ABVValue@2@@Z
_TEXT	SEGMENT
_this$ = -8						; size = 4
$T63023 = -4						; size = 4
___$ReturnUdt$ = 8					; size = 4
_root$ = 12						; size = 4
?write@FastWriter@Json@@UAE?AV?$basic_string@DU?$char_traits@D@std@@V?$allocator@D@2@@std@@ABVValue@2@@Z PROC ; Json::FastWriter::write, COMDAT
; _this$ = ecx

; 199  : {

	push	ebp
	mov	ebp, esp
	sub	esp, 8
	mov	DWORD PTR _this$[ebp], ecx
	mov	DWORD PTR $T63023[ebp], 0

; 200  :    document_ = "";

	push	OFFSET ??_C@_00CNPNBAHC@?$AA@
	mov	ecx, DWORD PTR _this$[ebp]
	add	ecx, 4
	call	DWORD PTR __imp_??4?$basic_string@DU?$char_traits@D@std@@V?$allocator@D@2@@std@@QAEAAV01@PBD@Z

; 201  :    writeValue( root );

	mov	eax, DWORD PTR _root$[ebp]
	push	eax
	mov	ecx, DWORD PTR _this$[ebp]
	call	?writeValue@FastWriter@Json@@AAEXABVValue@2@@Z ; Json::FastWriter::writeValue

; 202  :    document_ += "\n";

	push	OFFSET ??_C@_01EEMJAFIK@?6?$AA@
	mov	ecx, DWORD PTR _this$[ebp]
	add	ecx, 4
	call	DWORD PTR __imp_??Y?$basic_string@DU?$char_traits@D@std@@V?$allocator@D@2@@std@@QAEAAV01@PBD@Z

; 203  :    return document_;

	mov	ecx, DWORD PTR _this$[ebp]
	add	ecx, 4
	push	ecx
	mov	ecx, DWORD PTR ___$ReturnUdt$[ebp]
	call	DWORD PTR __imp_??0?$basic_string@DU?$char_traits@D@std@@V?$allocator@D@2@@std@@QAE@ABV01@@Z
	mov	edx, DWORD PTR $T63023[ebp]
	or	edx, 1
	mov	DWORD PTR $T63023[ebp], edx
	mov	eax, DWORD PTR ___$ReturnUdt$[ebp]

; 204  : }

	mov	esp, ebp
	pop	ebp
	ret	8
?write@FastWriter@Json@@UAE?AV?$basic_string@DU?$char_traits@D@std@@V?$allocator@D@2@@std@@ABVValue@2@@Z ENDP ; Json::FastWriter::write
_TEXT	ENDS
PUBLIC	??1?$vector@V?$basic_string@DU?$char_traits@D@std@@V?$allocator@D@2@@std@@V?$allocator@V?$basic_string@DU?$char_traits@D@std@@V?$allocator@D@2@@std@@@2@@std@@QAE@XZ ; std::vector<std::basic_string<char,std::char_traits<char>,std::allocator<char> >,std::allocator<std::basic_string<char,std::char_traits<char>,std::allocator<char> > > >::~vector<std::basic_string<char,std::char_traits<char>,std::allocator<char> >,std::allocator<std::basic_string<char,std::char_traits<char>,std::allocator<char> > > >
PUBLIC	??_C@_01CELHOKLL@?$HN?$AA@			; `string'
PUBLIC	??_C@_01JLIPDDHJ@?3?$AA@			; `string'
PUBLIC	??_C@_02LMMGGCAJ@?3?5?$AA@			; `string'
PUBLIC	??D?$_Vector_iterator@V?$basic_string@DU?$char_traits@D@std@@V?$allocator@D@2@@std@@V?$allocator@V?$basic_string@DU?$char_traits@D@std@@V?$allocator@D@2@@std@@@2@@std@@QBEAAV?$basic_string@DU?$char_traits@D@std@@V?$allocator@D@2@@1@XZ ; std::_Vector_iterator<std::basic_string<char,std::char_traits<char>,std::allocator<char> >,std::allocator<std::basic_string<char,std::char_traits<char>,std::allocator<char> > > >::operator*
PUBLIC	??9?$_Vector_const_iterator@V?$basic_string@DU?$char_traits@D@std@@V?$allocator@D@2@@std@@V?$allocator@V?$basic_string@DU?$char_traits@D@std@@V?$allocator@D@2@@std@@@2@@std@@QBE_NABV01@@Z ; std::_Vector_const_iterator<std::basic_string<char,std::char_traits<char>,std::allocator<char> >,std::allocator<std::basic_string<char,std::char_traits<char>,std::allocator<char> > > >::operator!=
PUBLIC	?end@?$vector@V?$basic_string@DU?$char_traits@D@std@@V?$allocator@D@2@@std@@V?$allocator@V?$basic_string@DU?$char_traits@D@std@@V?$allocator@D@2@@std@@@2@@std@@QAE?AV?$_Vector_iterator@V?$basic_string@DU?$char_traits@D@std@@V?$allocator@D@2@@std@@V?$allocator@V?$basic_string@DU?$char_traits@D@std@@V?$allocator@D@2@@std@@@2@@2@XZ ; std::vector<std::basic_string<char,std::char_traits<char>,std::allocator<char> >,std::allocator<std::basic_string<char,std::char_traits<char>,std::allocator<char> > > >::end
PUBLIC	??E?$_Vector_iterator@V?$basic_string@DU?$char_traits@D@std@@V?$allocator@D@2@@std@@V?$allocator@V?$basic_string@DU?$char_traits@D@std@@V?$allocator@D@2@@std@@@2@@std@@QAEAAV01@XZ ; std::_Vector_iterator<std::basic_string<char,std::char_traits<char>,std::allocator<char> >,std::allocator<std::basic_string<char,std::char_traits<char>,std::allocator<char> > > >::operator++
PUBLIC	?begin@?$vector@V?$basic_string@DU?$char_traits@D@std@@V?$allocator@D@2@@std@@V?$allocator@V?$basic_string@DU?$char_traits@D@std@@V?$allocator@D@2@@std@@@2@@std@@QAE?AV?$_Vector_iterator@V?$basic_string@DU?$char_traits@D@std@@V?$allocator@D@2@@std@@V?$allocator@V?$basic_string@DU?$char_traits@D@std@@V?$allocator@D@2@@std@@@2@@2@XZ ; std::vector<std::basic_string<char,std::char_traits<char>,std::allocator<char> >,std::allocator<std::basic_string<char,std::char_traits<char>,std::allocator<char> > > >::begin
PUBLIC	??_C@_01HCONENDN@?$HL?$AA@			; `string'
PUBLIC	??_C@_01LBDDMOBJ@?$FN?$AA@			; `string'
PUBLIC	??_C@_01IHBHIGKO@?0?$AA@			; `string'
PUBLIC	??_C@_01OHGJGJJP@?$FL?$AA@			; `string'
PUBLIC	??_C@_04MLLLIHIP@null?$AA@			; `string'
EXTRN	??AValue@Json@@QBEABV01@ABV?$basic_string@DU?$char_traits@D@std@@V?$allocator@D@2@@std@@@Z:PROC ; Json::Value::operator[]
EXTRN	__imp_?c_str@?$basic_string@DU?$char_traits@D@std@@V?$allocator@D@2@@std@@QBEPBDXZ:PROC
EXTRN	?getMemberNames@Value@Json@@QBE?AV?$vector@V?$basic_string@DU?$char_traits@D@std@@V?$allocator@D@2@@std@@V?$allocator@V?$basic_string@DU?$char_traits@D@std@@V?$allocator@D@2@@std@@@2@@std@@XZ:PROC ; Json::Value::getMemberNames
EXTRN	??AValue@Json@@QBEABV01@I@Z:PROC		; Json::Value::operator[]
EXTRN	?size@Value@Json@@QBEIXZ:PROC			; Json::Value::size
EXTRN	?asBool@Value@Json@@QBE_NXZ:PROC		; Json::Value::asBool
EXTRN	?asCString@Value@Json@@QBEPBDXZ:PROC		; Json::Value::asCString
EXTRN	?asDouble@Value@Json@@QBENXZ:PROC		; Json::Value::asDouble
EXTRN	?asUInt@Value@Json@@QBEIXZ:PROC			; Json::Value::asUInt
EXTRN	?asInt@Value@Json@@QBEHXZ:PROC			; Json::Value::asInt
EXTRN	?type@Value@Json@@QBE?AW4ValueType@2@XZ:PROC	; Json::Value::type
;	COMDAT ??_C@_01CELHOKLL@?$HN?$AA@
CONST	SEGMENT
??_C@_01CELHOKLL@?$HN?$AA@ DB '}', 00H			; `string'
CONST	ENDS
;	COMDAT ??_C@_01JLIPDDHJ@?3?$AA@
CONST	SEGMENT
??_C@_01JLIPDDHJ@?3?$AA@ DB ':', 00H			; `string'
CONST	ENDS
;	COMDAT ??_C@_02LMMGGCAJ@?3?5?$AA@
CONST	SEGMENT
??_C@_02LMMGGCAJ@?3?5?$AA@ DB ': ', 00H			; `string'
CONST	ENDS
;	COMDAT ??_C@_01HCONENDN@?$HL?$AA@
CONST	SEGMENT
??_C@_01HCONENDN@?$HL?$AA@ DB '{', 00H			; `string'
CONST	ENDS
;	COMDAT ??_C@_01LBDDMOBJ@?$FN?$AA@
CONST	SEGMENT
??_C@_01LBDDMOBJ@?$FN?$AA@ DB ']', 00H			; `string'
CONST	ENDS
;	COMDAT ??_C@_01IHBHIGKO@?0?$AA@
CONST	SEGMENT
??_C@_01IHBHIGKO@?0?$AA@ DB ',', 00H			; `string'
CONST	ENDS
;	COMDAT ??_C@_01OHGJGJJP@?$FL?$AA@
CONST	SEGMENT
??_C@_01OHGJGJJP@?$FL?$AA@ DB '[', 00H			; `string'
CONST	ENDS
;	COMDAT ??_C@_04MLLLIHIP@null?$AA@
CONST	SEGMENT
??_C@_04MLLLIHIP@null?$AA@ DB 'null', 00H		; `string'
CONST	ENDS
;	COMDAT xdata$x
xdata$x	SEGMENT
__ehfuncinfo$?writeValue@FastWriter@Json@@AAEXABVValue@2@@Z DD 019930522H
	DD	07H
	DD	FLAT:__unwindtable$?writeValue@FastWriter@Json@@AAEXABVValue@2@@Z
	DD	2 DUP(00H)
	DD	2 DUP(00H)
	DD	00H
	DD	01H
__unwindtable$?writeValue@FastWriter@Json@@AAEXABVValue@2@@Z DD 0ffffffffH
	DD	FLAT:__unwindfunclet$?writeValue@FastWriter@Json@@AAEXABVValue@2@@Z$0
	DD	0ffffffffH
	DD	FLAT:__unwindfunclet$?writeValue@FastWriter@Json@@AAEXABVValue@2@@Z$1
	DD	0ffffffffH
	DD	FLAT:__unwindfunclet$?writeValue@FastWriter@Json@@AAEXABVValue@2@@Z$2
	DD	0ffffffffH
	DD	FLAT:__unwindfunclet$?writeValue@FastWriter@Json@@AAEXABVValue@2@@Z$3
	DD	0ffffffffH
	DD	FLAT:__unwindfunclet$?writeValue@FastWriter@Json@@AAEXABVValue@2@@Z$4
	DD	0ffffffffH
	DD	FLAT:__unwindfunclet$?writeValue@FastWriter@Json@@AAEXABVValue@2@@Z$5
	DD	05H
	DD	FLAT:__unwindfunclet$?writeValue@FastWriter@Json@@AAEXABVValue@2@@Z$6
; Function compile flags: /Odtp
xdata$x	ENDS
;	COMDAT ?writeValue@FastWriter@Json@@AAEXABVValue@2@@Z
_TEXT	SEGMENT
tv234 = -300						; size = 4
tv256 = -296						; size = 4
tv172 = -292						; size = 4
tv253 = -288						; size = 4
tv261 = -284						; size = 4
tv251 = -280						; size = 4
tv260 = -276						; size = 4
tv249 = -272						; size = 4
tv259 = -268						; size = 4
tv247 = -264						; size = 4
tv258 = -260						; size = 4
tv245 = -256						; size = 4
tv257 = -252						; size = 4
tv66 = -248						; size = 4
_this$ = -244						; size = 4
$T63034 = -240						; size = 28
$T63033 = -212						; size = 8
$T63032 = -204						; size = 8
$T63031 = -196						; size = 28
$T63030 = -168						; size = 28
$T63029 = -140						; size = 28
$T63028 = -112						; size = 28
$T63027 = -84						; size = 28
_name$56235 = -56					; size = 4
_it$56229 = -52						; size = 8
_members$56069 = -44					; size = 24
_index$56060 = -20					; size = 4
_size$56059 = -16					; size = 4
__$EHRec$ = -12						; size = 12
_value$ = 8						; size = 4
?writeValue@FastWriter@Json@@AAEXABVValue@2@@Z PROC	; Json::FastWriter::writeValue, COMDAT
; _this$ = ecx

; 209  : {

	push	ebp
	mov	ebp, esp
	push	-1
	push	__ehhandler$?writeValue@FastWriter@Json@@AAEXABVValue@2@@Z
	mov	eax, DWORD PTR fs:0
	push	eax
	sub	esp, 288				; 00000120H
	mov	eax, DWORD PTR ___security_cookie
	xor	eax, ebp
	push	eax
	lea	eax, DWORD PTR __$EHRec$[ebp]
	mov	DWORD PTR fs:0, eax
	mov	DWORD PTR _this$[ebp], ecx

; 210  :    switch ( value.type() )

	mov	ecx, DWORD PTR _value$[ebp]
	call	?type@Value@Json@@QBE?AW4ValueType@2@XZ	; Json::Value::type
	mov	DWORD PTR tv66[ebp], eax
	cmp	DWORD PTR tv66[ebp], 7
	ja	$LN17@writeValue
	mov	eax, DWORD PTR tv66[ebp]
	jmp	DWORD PTR $LN31@writeValue[eax*4]
$LN16@writeValue:

; 211  :    {
; 212  :    case nullValue:
; 213  :       document_ += "null";

	push	OFFSET ??_C@_04MLLLIHIP@null?$AA@
	mov	ecx, DWORD PTR _this$[ebp]
	add	ecx, 4
	call	DWORD PTR __imp_??Y?$basic_string@DU?$char_traits@D@std@@V?$allocator@D@2@@std@@QAEAAV01@PBD@Z

; 214  :       break;

	jmp	$LN17@writeValue
$LN15@writeValue:

; 215  :    case intValue:
; 216  :       document_ += valueToString( value.asInt() );

	mov	ecx, DWORD PTR _value$[ebp]
	call	?asInt@Value@Json@@QBEHXZ		; Json::Value::asInt
	push	eax
	lea	ecx, DWORD PTR $T63027[ebp]
	push	ecx
	call	?valueToString@Json@@YA?AV?$basic_string@DU?$char_traits@D@std@@V?$allocator@D@2@@std@@H@Z ; Json::valueToString
	add	esp, 8
	mov	DWORD PTR tv257[ebp], eax
	mov	edx, DWORD PTR tv257[ebp]
	mov	DWORD PTR tv245[ebp], edx
	mov	DWORD PTR __$EHRec$[ebp+8], 0
	mov	eax, DWORD PTR tv245[ebp]
	push	eax
	mov	ecx, DWORD PTR _this$[ebp]
	add	ecx, 4
	call	DWORD PTR __imp_??Y?$basic_string@DU?$char_traits@D@std@@V?$allocator@D@2@@std@@QAEAAV01@ABV01@@Z
	mov	DWORD PTR __$EHRec$[ebp+8], -1
	lea	ecx, DWORD PTR $T63027[ebp]
	call	DWORD PTR __imp_??1?$basic_string@DU?$char_traits@D@std@@V?$allocator@D@2@@std@@QAE@XZ

; 217  :       break;

	jmp	$LN17@writeValue
$LN14@writeValue:

; 218  :    case uintValue:
; 219  :       document_ += valueToString( value.asUInt() );

	mov	ecx, DWORD PTR _value$[ebp]
	call	?asUInt@Value@Json@@QBEIXZ		; Json::Value::asUInt
	push	eax
	lea	ecx, DWORD PTR $T63028[ebp]
	push	ecx
	call	?valueToString@Json@@YA?AV?$basic_string@DU?$char_traits@D@std@@V?$allocator@D@2@@std@@I@Z ; Json::valueToString
	add	esp, 8
	mov	DWORD PTR tv258[ebp], eax
	mov	edx, DWORD PTR tv258[ebp]
	mov	DWORD PTR tv247[ebp], edx
	mov	DWORD PTR __$EHRec$[ebp+8], 1
	mov	eax, DWORD PTR tv247[ebp]
	push	eax
	mov	ecx, DWORD PTR _this$[ebp]
	add	ecx, 4
	call	DWORD PTR __imp_??Y?$basic_string@DU?$char_traits@D@std@@V?$allocator@D@2@@std@@QAEAAV01@ABV01@@Z
	mov	DWORD PTR __$EHRec$[ebp+8], -1
	lea	ecx, DWORD PTR $T63028[ebp]
	call	DWORD PTR __imp_??1?$basic_string@DU?$char_traits@D@std@@V?$allocator@D@2@@std@@QAE@XZ

; 220  :       break;

	jmp	$LN17@writeValue
$LN13@writeValue:

; 221  :    case realValue:
; 222  :       document_ += valueToString( value.asDouble() );

	mov	ecx, DWORD PTR _value$[ebp]
	call	?asDouble@Value@Json@@QBENXZ		; Json::Value::asDouble
	sub	esp, 8
	fstp	QWORD PTR [esp]
	lea	ecx, DWORD PTR $T63029[ebp]
	push	ecx
	call	?valueToString@Json@@YA?AV?$basic_string@DU?$char_traits@D@std@@V?$allocator@D@2@@std@@N@Z ; Json::valueToString
	add	esp, 12					; 0000000cH
	mov	DWORD PTR tv259[ebp], eax
	mov	edx, DWORD PTR tv259[ebp]
	mov	DWORD PTR tv249[ebp], edx
	mov	DWORD PTR __$EHRec$[ebp+8], 2
	mov	eax, DWORD PTR tv249[ebp]
	push	eax
	mov	ecx, DWORD PTR _this$[ebp]
	add	ecx, 4
	call	DWORD PTR __imp_??Y?$basic_string@DU?$char_traits@D@std@@V?$allocator@D@2@@std@@QAEAAV01@ABV01@@Z
	mov	DWORD PTR __$EHRec$[ebp+8], -1
	lea	ecx, DWORD PTR $T63029[ebp]
	call	DWORD PTR __imp_??1?$basic_string@DU?$char_traits@D@std@@V?$allocator@D@2@@std@@QAE@XZ

; 223  :       break;

	jmp	$LN17@writeValue
$LN12@writeValue:

; 224  :    case stringValue:
; 225  :       document_ += valueToQuotedString( value.asCString() );

	mov	ecx, DWORD PTR _value$[ebp]
	call	?asCString@Value@Json@@QBEPBDXZ		; Json::Value::asCString
	push	eax
	lea	ecx, DWORD PTR $T63030[ebp]
	push	ecx
	call	?valueToQuotedString@Json@@YA?AV?$basic_string@DU?$char_traits@D@std@@V?$allocator@D@2@@std@@PBD@Z ; Json::valueToQuotedString
	add	esp, 8
	mov	DWORD PTR tv260[ebp], eax
	mov	edx, DWORD PTR tv260[ebp]
	mov	DWORD PTR tv251[ebp], edx
	mov	DWORD PTR __$EHRec$[ebp+8], 3
	mov	eax, DWORD PTR tv251[ebp]
	push	eax
	mov	ecx, DWORD PTR _this$[ebp]
	add	ecx, 4
	call	DWORD PTR __imp_??Y?$basic_string@DU?$char_traits@D@std@@V?$allocator@D@2@@std@@QAEAAV01@ABV01@@Z
	mov	DWORD PTR __$EHRec$[ebp+8], -1
	lea	ecx, DWORD PTR $T63030[ebp]
	call	DWORD PTR __imp_??1?$basic_string@DU?$char_traits@D@std@@V?$allocator@D@2@@std@@QAE@XZ

; 226  :       break;

	jmp	$LN17@writeValue
$LN11@writeValue:

; 227  :    case booleanValue:
; 228  :       document_ += valueToString( value.asBool() );

	mov	ecx, DWORD PTR _value$[ebp]
	call	?asBool@Value@Json@@QBE_NXZ		; Json::Value::asBool
	movzx	ecx, al
	push	ecx
	lea	edx, DWORD PTR $T63031[ebp]
	push	edx
	call	?valueToString@Json@@YA?AV?$basic_string@DU?$char_traits@D@std@@V?$allocator@D@2@@std@@_N@Z ; Json::valueToString
	add	esp, 8
	mov	DWORD PTR tv261[ebp], eax
	mov	eax, DWORD PTR tv261[ebp]
	mov	DWORD PTR tv253[ebp], eax
	mov	DWORD PTR __$EHRec$[ebp+8], 4
	mov	ecx, DWORD PTR tv253[ebp]
	push	ecx
	mov	ecx, DWORD PTR _this$[ebp]
	add	ecx, 4
	call	DWORD PTR __imp_??Y?$basic_string@DU?$char_traits@D@std@@V?$allocator@D@2@@std@@QAEAAV01@ABV01@@Z
	mov	DWORD PTR __$EHRec$[ebp+8], -1
	lea	ecx, DWORD PTR $T63031[ebp]
	call	DWORD PTR __imp_??1?$basic_string@DU?$char_traits@D@std@@V?$allocator@D@2@@std@@QAE@XZ

; 229  :       break;

	jmp	$LN17@writeValue
$LN10@writeValue:

; 230  :    case arrayValue:
; 231  :       {
; 232  :          document_ += "[";

	push	OFFSET ??_C@_01OHGJGJJP@?$FL?$AA@
	mov	ecx, DWORD PTR _this$[ebp]
	add	ecx, 4
	call	DWORD PTR __imp_??Y?$basic_string@DU?$char_traits@D@std@@V?$allocator@D@2@@std@@QAEAAV01@PBD@Z

; 233  :          int size = value.size();

	mov	ecx, DWORD PTR _value$[ebp]
	call	?size@Value@Json@@QBEIXZ		; Json::Value::size
	mov	DWORD PTR _size$56059[ebp], eax

; 234  :          for ( int index =0; index < size; ++index )

	mov	DWORD PTR _index$56060[ebp], 0
	jmp	SHORT $LN9@writeValue
$LN8@writeValue:
	mov	edx, DWORD PTR _index$56060[ebp]
	add	edx, 1
	mov	DWORD PTR _index$56060[ebp], edx
$LN9@writeValue:
	mov	eax, DWORD PTR _index$56060[ebp]
	cmp	eax, DWORD PTR _size$56059[ebp]
	jge	SHORT $LN7@writeValue

; 235  :          {
; 236  :             if ( index > 0 )

	cmp	DWORD PTR _index$56060[ebp], 0
	jle	SHORT $LN6@writeValue

; 237  :                document_ += ",";

	push	OFFSET ??_C@_01IHBHIGKO@?0?$AA@
	mov	ecx, DWORD PTR _this$[ebp]
	add	ecx, 4
	call	DWORD PTR __imp_??Y?$basic_string@DU?$char_traits@D@std@@V?$allocator@D@2@@std@@QAEAAV01@PBD@Z
$LN6@writeValue:

; 238  :             writeValue( value[index] );

	mov	ecx, DWORD PTR _index$56060[ebp]
	push	ecx
	mov	ecx, DWORD PTR _value$[ebp]
	call	??AValue@Json@@QBEABV01@I@Z		; Json::Value::operator[]
	push	eax
	mov	ecx, DWORD PTR _this$[ebp]
	call	?writeValue@FastWriter@Json@@AAEXABVValue@2@@Z ; Json::FastWriter::writeValue

; 239  :          }

	jmp	SHORT $LN8@writeValue
$LN7@writeValue:

; 240  :          document_ += "]";

	push	OFFSET ??_C@_01LBDDMOBJ@?$FN?$AA@
	mov	ecx, DWORD PTR _this$[ebp]
	add	ecx, 4
	call	DWORD PTR __imp_??Y?$basic_string@DU?$char_traits@D@std@@V?$allocator@D@2@@std@@QAEAAV01@PBD@Z

; 241  :       }
; 242  :       break;

	jmp	$LN17@writeValue
$LN5@writeValue:

; 243  :    case objectValue:
; 244  :       {
; 245  :          Value::Members members( value.getMemberNames() );

	lea	edx, DWORD PTR _members$56069[ebp]
	push	edx
	mov	ecx, DWORD PTR _value$[ebp]
	call	?getMemberNames@Value@Json@@QBE?AV?$vector@V?$basic_string@DU?$char_traits@D@std@@V?$allocator@D@2@@std@@V?$allocator@V?$basic_string@DU?$char_traits@D@std@@V?$allocator@D@2@@std@@@2@@std@@XZ ; Json::Value::getMemberNames
	mov	DWORD PTR __$EHRec$[ebp+8], 5

; 246  :          document_ += "{";

	push	OFFSET ??_C@_01HCONENDN@?$HL?$AA@
	mov	ecx, DWORD PTR _this$[ebp]
	add	ecx, 4
	call	DWORD PTR __imp_??Y?$basic_string@DU?$char_traits@D@std@@V?$allocator@D@2@@std@@QAEAAV01@PBD@Z

; 247  :          for ( Value::Members::iterator it = members.begin(); 

	lea	eax, DWORD PTR _it$56229[ebp]
	push	eax
	lea	ecx, DWORD PTR _members$56069[ebp]
	call	?begin@?$vector@V?$basic_string@DU?$char_traits@D@std@@V?$allocator@D@2@@std@@V?$allocator@V?$basic_string@DU?$char_traits@D@std@@V?$allocator@D@2@@std@@@2@@std@@QAE?AV?$_Vector_iterator@V?$basic_string@DU?$char_traits@D@std@@V?$allocator@D@2@@std@@V?$allocator@V?$basic_string@DU?$char_traits@D@std@@V?$allocator@D@2@@std@@@2@@2@XZ ; std::vector<std::basic_string<char,std::char_traits<char>,std::allocator<char> >,std::allocator<std::basic_string<char,std::char_traits<char>,std::allocator<char> > > >::begin

; 248  :                it != members.end(); 
; 249  :                ++it )

	jmp	SHORT $LN4@writeValue
$LN3@writeValue:
	lea	ecx, DWORD PTR _it$56229[ebp]
	call	??E?$_Vector_iterator@V?$basic_string@DU?$char_traits@D@std@@V?$allocator@D@2@@std@@V?$allocator@V?$basic_string@DU?$char_traits@D@std@@V?$allocator@D@2@@std@@@2@@std@@QAEAAV01@XZ ; std::_Vector_iterator<std::basic_string<char,std::char_traits<char>,std::allocator<char> >,std::allocator<std::basic_string<char,std::char_traits<char>,std::allocator<char> > > >::operator++
$LN4@writeValue:
	lea	ecx, DWORD PTR $T63032[ebp]
	push	ecx
	lea	ecx, DWORD PTR _members$56069[ebp]
	call	?end@?$vector@V?$basic_string@DU?$char_traits@D@std@@V?$allocator@D@2@@std@@V?$allocator@V?$basic_string@DU?$char_traits@D@std@@V?$allocator@D@2@@std@@@2@@std@@QAE?AV?$_Vector_iterator@V?$basic_string@DU?$char_traits@D@std@@V?$allocator@D@2@@std@@V?$allocator@V?$basic_string@DU?$char_traits@D@std@@V?$allocator@D@2@@std@@@2@@2@XZ ; std::vector<std::basic_string<char,std::char_traits<char>,std::allocator<char> >,std::allocator<std::basic_string<char,std::char_traits<char>,std::allocator<char> > > >::end
	push	eax
	lea	ecx, DWORD PTR _it$56229[ebp]
	call	??9?$_Vector_const_iterator@V?$basic_string@DU?$char_traits@D@std@@V?$allocator@D@2@@std@@V?$allocator@V?$basic_string@DU?$char_traits@D@std@@V?$allocator@D@2@@std@@@2@@std@@QBE_NABV01@@Z ; std::_Vector_const_iterator<std::basic_string<char,std::char_traits<char>,std::allocator<char> >,std::allocator<std::basic_string<char,std::char_traits<char>,std::allocator<char> > > >::operator!=
	movzx	edx, al
	test	edx, edx
	je	$LN2@writeValue

; 250  :          {
; 251  :             const std::string &name = *it;

	lea	ecx, DWORD PTR _it$56229[ebp]
	call	??D?$_Vector_iterator@V?$basic_string@DU?$char_traits@D@std@@V?$allocator@D@2@@std@@V?$allocator@V?$basic_string@DU?$char_traits@D@std@@V?$allocator@D@2@@std@@@2@@std@@QBEAAV?$basic_string@DU?$char_traits@D@std@@V?$allocator@D@2@@1@XZ ; std::_Vector_iterator<std::basic_string<char,std::char_traits<char>,std::allocator<char> >,std::allocator<std::basic_string<char,std::char_traits<char>,std::allocator<char> > > >::operator*
	mov	DWORD PTR _name$56235[ebp], eax

; 252  :             if ( it != members.begin() )

	lea	eax, DWORD PTR $T63033[ebp]
	push	eax
	lea	ecx, DWORD PTR _members$56069[ebp]
	call	?begin@?$vector@V?$basic_string@DU?$char_traits@D@std@@V?$allocator@D@2@@std@@V?$allocator@V?$basic_string@DU?$char_traits@D@std@@V?$allocator@D@2@@std@@@2@@std@@QAE?AV?$_Vector_iterator@V?$basic_string@DU?$char_traits@D@std@@V?$allocator@D@2@@std@@V?$allocator@V?$basic_string@DU?$char_traits@D@std@@V?$allocator@D@2@@std@@@2@@2@XZ ; std::vector<std::basic_string<char,std::char_traits<char>,std::allocator<char> >,std::allocator<std::basic_string<char,std::char_traits<char>,std::allocator<char> > > >::begin
	push	eax
	lea	ecx, DWORD PTR _it$56229[ebp]
	call	??9?$_Vector_const_iterator@V?$basic_string@DU?$char_traits@D@std@@V?$allocator@D@2@@std@@V?$allocator@V?$basic_string@DU?$char_traits@D@std@@V?$allocator@D@2@@std@@@2@@std@@QBE_NABV01@@Z ; std::_Vector_const_iterator<std::basic_string<char,std::char_traits<char>,std::allocator<char> >,std::allocator<std::basic_string<char,std::char_traits<char>,std::allocator<char> > > >::operator!=
	movzx	ecx, al
	test	ecx, ecx
	je	SHORT $LN1@writeValue

; 253  :                document_ += ",";

	push	OFFSET ??_C@_01IHBHIGKO@?0?$AA@
	mov	ecx, DWORD PTR _this$[ebp]
	add	ecx, 4
	call	DWORD PTR __imp_??Y?$basic_string@DU?$char_traits@D@std@@V?$allocator@D@2@@std@@QAEAAV01@PBD@Z
$LN1@writeValue:

; 254  :             document_ += valueToQuotedString( name.c_str() );

	mov	ecx, DWORD PTR _name$56235[ebp]
	call	DWORD PTR __imp_?c_str@?$basic_string@DU?$char_traits@D@std@@V?$allocator@D@2@@std@@QBEPBDXZ
	push	eax
	lea	edx, DWORD PTR $T63034[ebp]
	push	edx
	call	?valueToQuotedString@Json@@YA?AV?$basic_string@DU?$char_traits@D@std@@V?$allocator@D@2@@std@@PBD@Z ; Json::valueToQuotedString
	add	esp, 8
	mov	DWORD PTR tv172[ebp], eax
	mov	eax, DWORD PTR tv172[ebp]
	mov	DWORD PTR tv256[ebp], eax
	mov	BYTE PTR __$EHRec$[ebp+8], 6
	mov	ecx, DWORD PTR tv256[ebp]
	push	ecx
	mov	ecx, DWORD PTR _this$[ebp]
	add	ecx, 4
	call	DWORD PTR __imp_??Y?$basic_string@DU?$char_traits@D@std@@V?$allocator@D@2@@std@@QAEAAV01@ABV01@@Z
	mov	BYTE PTR __$EHRec$[ebp+8], 5
	lea	ecx, DWORD PTR $T63034[ebp]
	call	DWORD PTR __imp_??1?$basic_string@DU?$char_traits@D@std@@V?$allocator@D@2@@std@@QAE@XZ

; 255  :             document_ += yamlCompatiblityEnabled_ ? ": " 
; 256  :                                                   : ":";

	mov	edx, DWORD PTR _this$[ebp]
	movzx	eax, BYTE PTR [edx+32]
	test	eax, eax
	je	SHORT $LN21@writeValue
	mov	DWORD PTR tv234[ebp], OFFSET ??_C@_02LMMGGCAJ@?3?5?$AA@
	jmp	SHORT $LN22@writeValue
$LN21@writeValue:
	mov	DWORD PTR tv234[ebp], OFFSET ??_C@_01JLIPDDHJ@?3?$AA@
$LN22@writeValue:
	mov	ecx, DWORD PTR tv234[ebp]
	push	ecx
	mov	ecx, DWORD PTR _this$[ebp]
	add	ecx, 4
	call	DWORD PTR __imp_??Y?$basic_string@DU?$char_traits@D@std@@V?$allocator@D@2@@std@@QAEAAV01@PBD@Z

; 257  :             writeValue( value[name] );

	mov	edx, DWORD PTR _name$56235[ebp]
	push	edx
	mov	ecx, DWORD PTR _value$[ebp]
	call	??AValue@Json@@QBEABV01@ABV?$basic_string@DU?$char_traits@D@std@@V?$allocator@D@2@@std@@@Z ; Json::Value::operator[]
	push	eax
	mov	ecx, DWORD PTR _this$[ebp]
	call	?writeValue@FastWriter@Json@@AAEXABVValue@2@@Z ; Json::FastWriter::writeValue

; 258  :          }

	jmp	$LN3@writeValue
$LN2@writeValue:

; 259  :          document_ += "}";

	push	OFFSET ??_C@_01CELHOKLL@?$HN?$AA@
	mov	ecx, DWORD PTR _this$[ebp]
	add	ecx, 4
	call	DWORD PTR __imp_??Y?$basic_string@DU?$char_traits@D@std@@V?$allocator@D@2@@std@@QAEAAV01@PBD@Z

; 260  :       }

	mov	DWORD PTR __$EHRec$[ebp+8], -1
	lea	ecx, DWORD PTR _members$56069[ebp]
	call	??1?$vector@V?$basic_string@DU?$char_traits@D@std@@V?$allocator@D@2@@std@@V?$allocator@V?$basic_string@DU?$char_traits@D@std@@V?$allocator@D@2@@std@@@2@@std@@QAE@XZ ; std::vector<std::basic_string<char,std::char_traits<char>,std::allocator<char> >,std::allocator<std::basic_string<char,std::char_traits<char>,std::allocator<char> > > >::~vector<std::basic_string<char,std::char_traits<char>,std::allocator<char> >,std::allocator<std::basic_string<char,std::char_traits<char>,std::allocator<char> > > >
$LN17@writeValue:

; 261  :       break;
; 262  :    }
; 263  : }

	mov	ecx, DWORD PTR __$EHRec$[ebp]
	mov	DWORD PTR fs:0, ecx
	pop	ecx
	mov	esp, ebp
	pop	ebp
	ret	4
	npad	2
$LN31@writeValue:
	DD	$LN16@writeValue
	DD	$LN15@writeValue
	DD	$LN14@writeValue
	DD	$LN13@writeValue
	DD	$LN12@writeValue
	DD	$LN11@writeValue
	DD	$LN10@writeValue
	DD	$LN5@writeValue
_TEXT	ENDS
;	COMDAT text$x
text$x	SEGMENT
__unwindfunclet$?writeValue@FastWriter@Json@@AAEXABVValue@2@@Z$0:
	lea	ecx, DWORD PTR $T63027[ebp]
	jmp	DWORD PTR __imp_??1?$basic_string@DU?$char_traits@D@std@@V?$allocator@D@2@@std@@QAE@XZ
__unwindfunclet$?writeValue@FastWriter@Json@@AAEXABVValue@2@@Z$1:
	lea	ecx, DWORD PTR $T63028[ebp]
	jmp	DWORD PTR __imp_??1?$basic_string@DU?$char_traits@D@std@@V?$allocator@D@2@@std@@QAE@XZ
__unwindfunclet$?writeValue@FastWriter@Json@@AAEXABVValue@2@@Z$2:
	lea	ecx, DWORD PTR $T63029[ebp]
	jmp	DWORD PTR __imp_??1?$basic_string@DU?$char_traits@D@std@@V?$allocator@D@2@@std@@QAE@XZ
__unwindfunclet$?writeValue@FastWriter@Json@@AAEXABVValue@2@@Z$3:
	lea	ecx, DWORD PTR $T63030[ebp]
	jmp	DWORD PTR __imp_??1?$basic_string@DU?$char_traits@D@std@@V?$allocator@D@2@@std@@QAE@XZ
__unwindfunclet$?writeValue@FastWriter@Json@@AAEXABVValue@2@@Z$4:
	lea	ecx, DWORD PTR $T63031[ebp]
	jmp	DWORD PTR __imp_??1?$basic_string@DU?$char_traits@D@std@@V?$allocator@D@2@@std@@QAE@XZ
__unwindfunclet$?writeValue@FastWriter@Json@@AAEXABVValue@2@@Z$5:
	lea	ecx, DWORD PTR _members$56069[ebp]
	jmp	??1?$vector@V?$basic_string@DU?$char_traits@D@std@@V?$allocator@D@2@@std@@V?$allocator@V?$basic_string@DU?$char_traits@D@std@@V?$allocator@D@2@@std@@@2@@std@@QAE@XZ ; std::vector<std::basic_string<char,std::char_traits<char>,std::allocator<char> >,std::allocator<std::basic_string<char,std::char_traits<char>,std::allocator<char> > > >::~vector<std::basic_string<char,std::char_traits<char>,std::allocator<char> >,std::allocator<std::basic_string<char,std::char_traits<char>,std::allocator<char> > > >
__unwindfunclet$?writeValue@FastWriter@Json@@AAEXABVValue@2@@Z$6:
	lea	ecx, DWORD PTR $T63034[ebp]
	jmp	DWORD PTR __imp_??1?$basic_string@DU?$char_traits@D@std@@V?$allocator@D@2@@std@@QAE@XZ
__ehhandler$?writeValue@FastWriter@Json@@AAEXABVValue@2@@Z:
	mov	edx, DWORD PTR [esp+8]
	lea	eax, DWORD PTR [edx+12]
	mov	ecx, DWORD PTR [edx-292]
	xor	ecx, eax
	call	@__security_check_cookie@4
	mov	eax, OFFSET __ehfuncinfo$?writeValue@FastWriter@Json@@AAEXABVValue@2@@Z
	jmp	___CxxFrameHandler3
text$x	ENDS
?writeValue@FastWriter@Json@@AAEXABVValue@2@@Z ENDP	; Json::FastWriter::writeValue
PUBLIC	??0?$vector@V?$basic_string@DU?$char_traits@D@std@@V?$allocator@D@2@@std@@V?$allocator@V?$basic_string@DU?$char_traits@D@std@@V?$allocator@D@2@@std@@@2@@std@@QAE@XZ ; std::vector<std::basic_string<char,std::char_traits<char>,std::allocator<char> >,std::allocator<std::basic_string<char,std::char_traits<char>,std::allocator<char> > > >::vector<std::basic_string<char,std::char_traits<char>,std::allocator<char> >,std::allocator<std::basic_string<char,std::char_traits<char>,std::allocator<char> > > >
PUBLIC	??_7StyledWriter@Json@@6B@			; Json::StyledWriter::`vftable'
PUBLIC	??0StyledWriter@Json@@QAE@XZ			; Json::StyledWriter::StyledWriter
PUBLIC	??_R4StyledWriter@Json@@6B@			; Json::StyledWriter::`RTTI Complete Object Locator'
PUBLIC	??_R0?AVStyledWriter@Json@@@8			; Json::StyledWriter `RTTI Type Descriptor'
PUBLIC	??_R3StyledWriter@Json@@8			; Json::StyledWriter::`RTTI Class Hierarchy Descriptor'
PUBLIC	??_R2StyledWriter@Json@@8			; Json::StyledWriter::`RTTI Base Class Array'
PUBLIC	??_R1A@?0A@EA@StyledWriter@Json@@8		; Json::StyledWriter::`RTTI Base Class Descriptor at (0,-1,0,64)'
PUBLIC	?write@StyledWriter@Json@@UAE?AV?$basic_string@DU?$char_traits@D@std@@V?$allocator@D@2@@std@@ABVValue@2@@Z ; Json::StyledWriter::write
EXTRN	??_EStyledWriter@Json@@UAEPAXI@Z:PROC		; Json::StyledWriter::`vector deleting destructor'
;	COMDAT ??_R1A@?0A@EA@StyledWriter@Json@@8
rdata$r	SEGMENT
??_R1A@?0A@EA@StyledWriter@Json@@8 DD FLAT:??_R0?AVStyledWriter@Json@@@8 ; Json::StyledWriter::`RTTI Base Class Descriptor at (0,-1,0,64)'
	DD	01H
	DD	00H
	DD	0ffffffffH
	DD	00H
	DD	040H
	DD	FLAT:??_R3StyledWriter@Json@@8
rdata$r	ENDS
;	COMDAT ??_R2StyledWriter@Json@@8
rdata$r	SEGMENT
??_R2StyledWriter@Json@@8 DD FLAT:??_R1A@?0A@EA@StyledWriter@Json@@8 ; Json::StyledWriter::`RTTI Base Class Array'
	DD	FLAT:??_R1A@?0A@EA@Writer@Json@@8
rdata$r	ENDS
;	COMDAT ??_R3StyledWriter@Json@@8
rdata$r	SEGMENT
??_R3StyledWriter@Json@@8 DD 00H			; Json::StyledWriter::`RTTI Class Hierarchy Descriptor'
	DD	00H
	DD	02H
	DD	FLAT:??_R2StyledWriter@Json@@8
rdata$r	ENDS
;	COMDAT ??_R0?AVStyledWriter@Json@@@8
_DATA	SEGMENT
??_R0?AVStyledWriter@Json@@@8 DD FLAT:??_7type_info@@6B@ ; Json::StyledWriter `RTTI Type Descriptor'
	DD	00H
	DB	'.?AVStyledWriter@Json@@', 00H
_DATA	ENDS
;	COMDAT ??_R4StyledWriter@Json@@6B@
rdata$r	SEGMENT
??_R4StyledWriter@Json@@6B@ DD 00H			; Json::StyledWriter::`RTTI Complete Object Locator'
	DD	00H
	DD	00H
	DD	FLAT:??_R0?AVStyledWriter@Json@@@8
	DD	FLAT:??_R3StyledWriter@Json@@8
rdata$r	ENDS
;	COMDAT ??_7StyledWriter@Json@@6B@
CONST	SEGMENT
??_7StyledWriter@Json@@6B@ DD FLAT:??_R4StyledWriter@Json@@6B@ ; Json::StyledWriter::`vftable'
	DD	FLAT:??_EStyledWriter@Json@@UAEPAXI@Z
	DD	FLAT:?write@StyledWriter@Json@@UAE?AV?$basic_string@DU?$char_traits@D@std@@V?$allocator@D@2@@std@@ABVValue@2@@Z
CONST	ENDS
;	COMDAT xdata$x
xdata$x	SEGMENT
__unwindtable$??0StyledWriter@Json@@QAE@XZ DD 0ffffffffH
	DD	FLAT:__unwindfunclet$??0StyledWriter@Json@@QAE@XZ$0
	DD	00H
	DD	FLAT:__unwindfunclet$??0StyledWriter@Json@@QAE@XZ$1
	DD	01H
	DD	FLAT:__unwindfunclet$??0StyledWriter@Json@@QAE@XZ$2
__ehfuncinfo$??0StyledWriter@Json@@QAE@XZ DD 019930522H
	DD	03H
	DD	FLAT:__unwindtable$??0StyledWriter@Json@@QAE@XZ
	DD	2 DUP(00H)
	DD	2 DUP(00H)
	DD	00H
	DD	01H
; Function compile flags: /Odtp
xdata$x	ENDS
;	COMDAT ??0StyledWriter@Json@@QAE@XZ
_TEXT	SEGMENT
_this$ = -16						; size = 4
__$EHRec$ = -12						; size = 12
??0StyledWriter@Json@@QAE@XZ PROC			; Json::StyledWriter::StyledWriter, COMDAT
; _this$ = ecx

; 272  : {

	push	ebp
	mov	ebp, esp
	push	-1
	push	__ehhandler$??0StyledWriter@Json@@QAE@XZ
	mov	eax, DWORD PTR fs:0
	push	eax
	push	ecx
	mov	eax, DWORD PTR ___security_cookie
	xor	eax, ebp
	push	eax
	lea	eax, DWORD PTR __$EHRec$[ebp]
	mov	DWORD PTR fs:0, eax
	mov	DWORD PTR _this$[ebp], ecx
	mov	ecx, DWORD PTR _this$[ebp]
	call	??0Writer@Json@@QAE@XZ
	mov	DWORD PTR __$EHRec$[ebp+8], 0
	mov	eax, DWORD PTR _this$[ebp]
	mov	DWORD PTR [eax], OFFSET ??_7StyledWriter@Json@@6B@
	mov	ecx, DWORD PTR _this$[ebp]
	add	ecx, 4
	call	??0?$vector@V?$basic_string@DU?$char_traits@D@std@@V?$allocator@D@2@@std@@V?$allocator@V?$basic_string@DU?$char_traits@D@std@@V?$allocator@D@2@@std@@@2@@std@@QAE@XZ ; std::vector<std::basic_string<char,std::char_traits<char>,std::allocator<char> >,std::allocator<std::basic_string<char,std::char_traits<char>,std::allocator<char> > > >::vector<std::basic_string<char,std::char_traits<char>,std::allocator<char> >,std::allocator<std::basic_string<char,std::char_traits<char>,std::allocator<char> > > >
	mov	BYTE PTR __$EHRec$[ebp+8], 1
	mov	ecx, DWORD PTR _this$[ebp]
	add	ecx, 28					; 0000001cH
	call	DWORD PTR __imp_??0?$basic_string@DU?$char_traits@D@std@@V?$allocator@D@2@@std@@QAE@XZ
	mov	BYTE PTR __$EHRec$[ebp+8], 2
	mov	ecx, DWORD PTR _this$[ebp]
	add	ecx, 56					; 00000038H
	call	DWORD PTR __imp_??0?$basic_string@DU?$char_traits@D@std@@V?$allocator@D@2@@std@@QAE@XZ
	mov	ecx, DWORD PTR _this$[ebp]
	mov	DWORD PTR [ecx+84], 74			; 0000004aH
	mov	edx, DWORD PTR _this$[ebp]
	mov	DWORD PTR [edx+88], 3

; 273  : }

	mov	DWORD PTR __$EHRec$[ebp+8], -1
	mov	eax, DWORD PTR _this$[ebp]
	mov	ecx, DWORD PTR __$EHRec$[ebp]
	mov	DWORD PTR fs:0, ecx
	pop	ecx
	mov	esp, ebp
	pop	ebp
	ret	0
_TEXT	ENDS
;	COMDAT text$x
text$x	SEGMENT
__unwindfunclet$??0StyledWriter@Json@@QAE@XZ$0:
	mov	ecx, DWORD PTR _this$[ebp]
	jmp	??1Writer@Json@@UAE@XZ			; Json::Writer::~Writer
__unwindfunclet$??0StyledWriter@Json@@QAE@XZ$1:
	mov	ecx, DWORD PTR _this$[ebp]
	add	ecx, 4
	jmp	??1?$vector@V?$basic_string@DU?$char_traits@D@std@@V?$allocator@D@2@@std@@V?$allocator@V?$basic_string@DU?$char_traits@D@std@@V?$allocator@D@2@@std@@@2@@std@@QAE@XZ ; std::vector<std::basic_string<char,std::char_traits<char>,std::allocator<char> >,std::allocator<std::basic_string<char,std::char_traits<char>,std::allocator<char> > > >::~vector<std::basic_string<char,std::char_traits<char>,std::allocator<char> >,std::allocator<std::basic_string<char,std::char_traits<char>,std::allocator<char> > > >
__unwindfunclet$??0StyledWriter@Json@@QAE@XZ$2:
	mov	ecx, DWORD PTR _this$[ebp]
	add	ecx, 28					; 0000001cH
	jmp	DWORD PTR __imp_??1?$basic_string@DU?$char_traits@D@std@@V?$allocator@D@2@@std@@QAE@XZ
__ehhandler$??0StyledWriter@Json@@QAE@XZ:
	mov	edx, DWORD PTR [esp+8]
	lea	eax, DWORD PTR [edx+12]
	mov	ecx, DWORD PTR [edx-8]
	xor	ecx, eax
	call	@__security_check_cookie@4
	mov	eax, OFFSET __ehfuncinfo$??0StyledWriter@Json@@QAE@XZ
	jmp	___CxxFrameHandler3
text$x	ENDS
??0StyledWriter@Json@@QAE@XZ ENDP			; Json::StyledWriter::StyledWriter
PUBLIC	??1StyledWriter@Json@@UAE@XZ			; Json::StyledWriter::~StyledWriter
; Function compile flags: /Odtp
;	COMDAT ??_GStyledWriter@Json@@UAEPAXI@Z
_TEXT	SEGMENT
_this$ = -4						; size = 4
___flags$ = 8						; size = 4
??_GStyledWriter@Json@@UAEPAXI@Z PROC			; Json::StyledWriter::`scalar deleting destructor', COMDAT
; _this$ = ecx
	push	ebp
	mov	ebp, esp
	push	ecx
	mov	DWORD PTR _this$[ebp], ecx
	mov	ecx, DWORD PTR _this$[ebp]
	call	??1StyledWriter@Json@@UAE@XZ		; Json::StyledWriter::~StyledWriter
	mov	eax, DWORD PTR ___flags$[ebp]
	and	eax, 1
	je	SHORT $LN1@scalar@3
	mov	ecx, DWORD PTR _this$[ebp]
	push	ecx
	call	??3@YAXPAX@Z				; operator delete
	add	esp, 4
$LN1@scalar@3:
	mov	eax, DWORD PTR _this$[ebp]
	mov	esp, ebp
	pop	ebp
	ret	4
??_GStyledWriter@Json@@UAEPAXI@Z ENDP			; Json::StyledWriter::`scalar deleting destructor'
_TEXT	ENDS
;	COMDAT xdata$x
; File f:\3dtetris\trunk\librarys\bohge\external\json\include\json\writer.h
xdata$x	SEGMENT
__unwindtable$??1StyledWriter@Json@@UAE@XZ DD 0ffffffffH
	DD	FLAT:__unwindfunclet$??1StyledWriter@Json@@UAE@XZ$0
	DD	00H
	DD	FLAT:__unwindfunclet$??1StyledWriter@Json@@UAE@XZ$1
	DD	01H
	DD	FLAT:__unwindfunclet$??1StyledWriter@Json@@UAE@XZ$2
__ehfuncinfo$??1StyledWriter@Json@@UAE@XZ DD 019930522H
	DD	03H
	DD	FLAT:__unwindtable$??1StyledWriter@Json@@UAE@XZ
	DD	2 DUP(00H)
	DD	2 DUP(00H)
	DD	00H
	DD	01H
; Function compile flags: /Odtp
xdata$x	ENDS
;	COMDAT ??1StyledWriter@Json@@UAE@XZ
_TEXT	SEGMENT
_this$ = -16						; size = 4
__$EHRec$ = -12						; size = 12
??1StyledWriter@Json@@UAE@XZ PROC			; Json::StyledWriter::~StyledWriter, COMDAT
; _this$ = ecx

; 69   :       virtual ~StyledWriter(){}

	push	ebp
	mov	ebp, esp
	push	-1
	push	__ehhandler$??1StyledWriter@Json@@UAE@XZ
	mov	eax, DWORD PTR fs:0
	push	eax
	push	ecx
	mov	eax, DWORD PTR ___security_cookie
	xor	eax, ebp
	push	eax
	lea	eax, DWORD PTR __$EHRec$[ebp]
	mov	DWORD PTR fs:0, eax
	mov	DWORD PTR _this$[ebp], ecx
	mov	eax, DWORD PTR _this$[ebp]
	mov	DWORD PTR [eax], OFFSET ??_7StyledWriter@Json@@6B@
	mov	DWORD PTR __$EHRec$[ebp+8], 2
	mov	ecx, DWORD PTR _this$[ebp]
	add	ecx, 56					; 00000038H
	call	DWORD PTR __imp_??1?$basic_string@DU?$char_traits@D@std@@V?$allocator@D@2@@std@@QAE@XZ
	mov	BYTE PTR __$EHRec$[ebp+8], 1
	mov	ecx, DWORD PTR _this$[ebp]
	add	ecx, 28					; 0000001cH
	call	DWORD PTR __imp_??1?$basic_string@DU?$char_traits@D@std@@V?$allocator@D@2@@std@@QAE@XZ
	mov	BYTE PTR __$EHRec$[ebp+8], 0
	mov	ecx, DWORD PTR _this$[ebp]
	add	ecx, 4
	call	??1?$vector@V?$basic_string@DU?$char_traits@D@std@@V?$allocator@D@2@@std@@V?$allocator@V?$basic_string@DU?$char_traits@D@std@@V?$allocator@D@2@@std@@@2@@std@@QAE@XZ ; std::vector<std::basic_string<char,std::char_traits<char>,std::allocator<char> >,std::allocator<std::basic_string<char,std::char_traits<char>,std::allocator<char> > > >::~vector<std::basic_string<char,std::char_traits<char>,std::allocator<char> >,std::allocator<std::basic_string<char,std::char_traits<char>,std::allocator<char> > > >
	mov	DWORD PTR __$EHRec$[ebp+8], -1
	mov	ecx, DWORD PTR _this$[ebp]
	call	??1Writer@Json@@UAE@XZ			; Json::Writer::~Writer
	mov	ecx, DWORD PTR __$EHRec$[ebp]
	mov	DWORD PTR fs:0, ecx
	pop	ecx
	mov	esp, ebp
	pop	ebp
	ret	0
_TEXT	ENDS
;	COMDAT text$x
text$x	SEGMENT
__unwindfunclet$??1StyledWriter@Json@@UAE@XZ$0:
	mov	ecx, DWORD PTR _this$[ebp]
	jmp	??1Writer@Json@@UAE@XZ			; Json::Writer::~Writer
__unwindfunclet$??1StyledWriter@Json@@UAE@XZ$1:
	mov	ecx, DWORD PTR _this$[ebp]
	add	ecx, 4
	jmp	??1?$vector@V?$basic_string@DU?$char_traits@D@std@@V?$allocator@D@2@@std@@V?$allocator@V?$basic_string@DU?$char_traits@D@std@@V?$allocator@D@2@@std@@@2@@std@@QAE@XZ ; std::vector<std::basic_string<char,std::char_traits<char>,std::allocator<char> >,std::allocator<std::basic_string<char,std::char_traits<char>,std::allocator<char> > > >::~vector<std::basic_string<char,std::char_traits<char>,std::allocator<char> >,std::allocator<std::basic_string<char,std::char_traits<char>,std::allocator<char> > > >
__unwindfunclet$??1StyledWriter@Json@@UAE@XZ$2:
	mov	ecx, DWORD PTR _this$[ebp]
	add	ecx, 28					; 0000001cH
	jmp	DWORD PTR __imp_??1?$basic_string@DU?$char_traits@D@std@@V?$allocator@D@2@@std@@QAE@XZ
__ehhandler$??1StyledWriter@Json@@UAE@XZ:
	mov	edx, DWORD PTR [esp+8]
	lea	eax, DWORD PTR [edx+12]
	mov	ecx, DWORD PTR [edx-8]
	xor	ecx, eax
	call	@__security_check_cookie@4
	mov	eax, OFFSET __ehfuncinfo$??1StyledWriter@Json@@UAE@XZ
	jmp	___CxxFrameHandler3
text$x	ENDS
??1StyledWriter@Json@@UAE@XZ ENDP			; Json::StyledWriter::~StyledWriter
PUBLIC	?writeCommentAfterValueOnSameLine@StyledWriter@Json@@AAEXABVValue@2@@Z ; Json::StyledWriter::writeCommentAfterValueOnSameLine
PUBLIC	?writeValue@StyledWriter@Json@@AAEXABVValue@2@@Z ; Json::StyledWriter::writeValue
PUBLIC	?writeCommentBeforeValue@StyledWriter@Json@@AAEXABVValue@2@@Z ; Json::StyledWriter::writeCommentBeforeValue
; Function compile flags: /Odtp
; File f:\3dtetris\trunk\librarys\bohge\external\json\src\lib_json\json_writer.cpp
;	COMDAT ?write@StyledWriter@Json@@UAE?AV?$basic_string@DU?$char_traits@D@std@@V?$allocator@D@2@@std@@ABVValue@2@@Z
_TEXT	SEGMENT
_this$ = -8						; size = 4
$T63080 = -4						; size = 4
___$ReturnUdt$ = 8					; size = 4
_root$ = 12						; size = 4
?write@StyledWriter@Json@@UAE?AV?$basic_string@DU?$char_traits@D@std@@V?$allocator@D@2@@std@@ABVValue@2@@Z PROC ; Json::StyledWriter::write, COMDAT
; _this$ = ecx

; 278  : {

	push	ebp
	mov	ebp, esp
	sub	esp, 8
	mov	DWORD PTR _this$[ebp], ecx
	mov	DWORD PTR $T63080[ebp], 0

; 279  :    document_ = "";

	push	OFFSET ??_C@_00CNPNBAHC@?$AA@
	mov	ecx, DWORD PTR _this$[ebp]
	add	ecx, 28					; 0000001cH
	call	DWORD PTR __imp_??4?$basic_string@DU?$char_traits@D@std@@V?$allocator@D@2@@std@@QAEAAV01@PBD@Z

; 280  :    addChildValues_ = false;

	mov	eax, DWORD PTR _this$[ebp]
	mov	BYTE PTR [eax+92], 0

; 281  :    indentString_ = "";

	push	OFFSET ??_C@_00CNPNBAHC@?$AA@
	mov	ecx, DWORD PTR _this$[ebp]
	add	ecx, 56					; 00000038H
	call	DWORD PTR __imp_??4?$basic_string@DU?$char_traits@D@std@@V?$allocator@D@2@@std@@QAEAAV01@PBD@Z

; 282  :    writeCommentBeforeValue( root );

	mov	ecx, DWORD PTR _root$[ebp]
	push	ecx
	mov	ecx, DWORD PTR _this$[ebp]
	call	?writeCommentBeforeValue@StyledWriter@Json@@AAEXABVValue@2@@Z ; Json::StyledWriter::writeCommentBeforeValue

; 283  :    writeValue( root );

	mov	edx, DWORD PTR _root$[ebp]
	push	edx
	mov	ecx, DWORD PTR _this$[ebp]
	call	?writeValue@StyledWriter@Json@@AAEXABVValue@2@@Z ; Json::StyledWriter::writeValue

; 284  :    writeCommentAfterValueOnSameLine( root );

	mov	eax, DWORD PTR _root$[ebp]
	push	eax
	mov	ecx, DWORD PTR _this$[ebp]
	call	?writeCommentAfterValueOnSameLine@StyledWriter@Json@@AAEXABVValue@2@@Z ; Json::StyledWriter::writeCommentAfterValueOnSameLine

; 285  :    document_ += "\n";

	push	OFFSET ??_C@_01EEMJAFIK@?6?$AA@
	mov	ecx, DWORD PTR _this$[ebp]
	add	ecx, 28					; 0000001cH
	call	DWORD PTR __imp_??Y?$basic_string@DU?$char_traits@D@std@@V?$allocator@D@2@@std@@QAEAAV01@PBD@Z

; 286  :    return document_;

	mov	ecx, DWORD PTR _this$[ebp]
	add	ecx, 28					; 0000001cH
	push	ecx
	mov	ecx, DWORD PTR ___$ReturnUdt$[ebp]
	call	DWORD PTR __imp_??0?$basic_string@DU?$char_traits@D@std@@V?$allocator@D@2@@std@@QAE@ABV01@@Z
	mov	edx, DWORD PTR $T63080[ebp]
	or	edx, 1
	mov	DWORD PTR $T63080[ebp], edx
	mov	eax, DWORD PTR ___$ReturnUdt$[ebp]

; 287  : }

	mov	esp, ebp
	pop	ebp
	ret	8
?write@StyledWriter@Json@@UAE?AV?$basic_string@DU?$char_traits@D@std@@V?$allocator@D@2@@std@@ABVValue@2@@Z ENDP ; Json::StyledWriter::write
_TEXT	ENDS
PUBLIC	?unindent@StyledWriter@Json@@AAEXXZ		; Json::StyledWriter::unindent
PUBLIC	??8?$_Vector_const_iterator@V?$basic_string@DU?$char_traits@D@std@@V?$allocator@D@2@@std@@V?$allocator@V?$basic_string@DU?$char_traits@D@std@@V?$allocator@D@2@@std@@@2@@std@@QBE_NABV01@@Z ; std::_Vector_const_iterator<std::basic_string<char,std::char_traits<char>,std::allocator<char> >,std::allocator<std::basic_string<char,std::char_traits<char>,std::allocator<char> > > >::operator==
PUBLIC	??_C@_03MCPBMLDJ@?5?3?5?$AA@			; `string'
PUBLIC	?indent@StyledWriter@Json@@AAEXXZ		; Json::StyledWriter::indent
PUBLIC	?writeWithIndent@StyledWriter@Json@@AAEXABV?$basic_string@DU?$char_traits@D@std@@V?$allocator@D@2@@std@@@Z ; Json::StyledWriter::writeWithIndent
PUBLIC	??_C@_02MCILKGOH@?$HL?$HN?$AA@			; `string'
PUBLIC	?empty@?$vector@V?$basic_string@DU?$char_traits@D@std@@V?$allocator@D@2@@std@@V?$allocator@V?$basic_string@DU?$char_traits@D@std@@V?$allocator@D@2@@std@@@2@@std@@QBE_NXZ ; std::vector<std::basic_string<char,std::char_traits<char>,std::allocator<char> >,std::allocator<std::basic_string<char,std::char_traits<char>,std::allocator<char> > > >::empty
PUBLIC	?writeArrayValue@StyledWriter@Json@@AAEXABVValue@2@@Z ; Json::StyledWriter::writeArrayValue
PUBLIC	?pushValue@StyledWriter@Json@@AAEXABV?$basic_string@DU?$char_traits@D@std@@V?$allocator@D@2@@std@@@Z ; Json::StyledWriter::pushValue
;	COMDAT ??_C@_03MCPBMLDJ@?5?3?5?$AA@
CONST	SEGMENT
??_C@_03MCPBMLDJ@?5?3?5?$AA@ DB ' : ', 00H		; `string'
CONST	ENDS
;	COMDAT ??_C@_02MCILKGOH@?$HL?$HN?$AA@
CONST	SEGMENT
??_C@_02MCILKGOH@?$HL?$HN?$AA@ DB '{}', 00H		; `string'
CONST	ENDS
;	COMDAT xdata$x
xdata$x	SEGMENT
__ehfuncinfo$?writeValue@StyledWriter@Json@@AAEXABVValue@2@@Z DD 019930522H
	DD	0bH
	DD	FLAT:__unwindtable$?writeValue@StyledWriter@Json@@AAEXABVValue@2@@Z
	DD	2 DUP(00H)
	DD	2 DUP(00H)
	DD	00H
	DD	01H
__unwindtable$?writeValue@StyledWriter@Json@@AAEXABVValue@2@@Z DD 0ffffffffH
	DD	FLAT:__unwindfunclet$?writeValue@StyledWriter@Json@@AAEXABVValue@2@@Z$0
	DD	0ffffffffH
	DD	FLAT:__unwindfunclet$?writeValue@StyledWriter@Json@@AAEXABVValue@2@@Z$1
	DD	0ffffffffH
	DD	FLAT:__unwindfunclet$?writeValue@StyledWriter@Json@@AAEXABVValue@2@@Z$2
	DD	0ffffffffH
	DD	FLAT:__unwindfunclet$?writeValue@StyledWriter@Json@@AAEXABVValue@2@@Z$3
	DD	0ffffffffH
	DD	FLAT:__unwindfunclet$?writeValue@StyledWriter@Json@@AAEXABVValue@2@@Z$4
	DD	0ffffffffH
	DD	FLAT:__unwindfunclet$?writeValue@StyledWriter@Json@@AAEXABVValue@2@@Z$5
	DD	0ffffffffH
	DD	FLAT:__unwindfunclet$?writeValue@StyledWriter@Json@@AAEXABVValue@2@@Z$6
	DD	06H
	DD	FLAT:__unwindfunclet$?writeValue@StyledWriter@Json@@AAEXABVValue@2@@Z$7
	DD	06H
	DD	FLAT:__unwindfunclet$?writeValue@StyledWriter@Json@@AAEXABVValue@2@@Z$8
	DD	06H
	DD	FLAT:__unwindfunclet$?writeValue@StyledWriter@Json@@AAEXABVValue@2@@Z$9
	DD	06H
	DD	FLAT:__unwindfunclet$?writeValue@StyledWriter@Json@@AAEXABVValue@2@@Z$10
; Function compile flags: /Odtp
xdata$x	ENDS
;	COMDAT ?writeValue@StyledWriter@Json@@AAEXABVValue@2@@Z
_TEXT	SEGMENT
tv245 = -396						; size = 4
tv168 = -392						; size = 4
tv240 = -388						; size = 4
tv250 = -384						; size = 4
tv238 = -380						; size = 4
tv249 = -376						; size = 4
tv236 = -372						; size = 4
tv248 = -368						; size = 4
tv234 = -364						; size = 4
tv247 = -360						; size = 4
tv232 = -356						; size = 4
tv69 = -352						; size = 4
tv66 = -348						; size = 4
_this$ = -344						; size = 4
$T63094 = -340						; size = 28
$T63093 = -312						; size = 8
$T63092 = -304						; size = 28
$T63091 = -276						; size = 28
$T63090 = -248						; size = 28
$T63089 = -220						; size = 28
$T63088 = -192						; size = 28
$T63087 = -164						; size = 28
$T63086 = -136						; size = 28
$T63085 = -108						; size = 28
$T63084 = -80						; size = 28
_name$56284 = -52					; size = 4
_childValue$56285 = -48					; size = 4
_it$56279 = -44						; size = 8
_members$56273 = -36					; size = 24
__$EHRec$ = -12						; size = 12
_value$ = 8						; size = 4
?writeValue@StyledWriter@Json@@AAEXABVValue@2@@Z PROC	; Json::StyledWriter::writeValue, COMDAT
; _this$ = ecx

; 292  : {

	push	ebp
	mov	ebp, esp
	push	-1
	push	__ehhandler$?writeValue@StyledWriter@Json@@AAEXABVValue@2@@Z
	mov	eax, DWORD PTR fs:0
	push	eax
	sub	esp, 384				; 00000180H
	mov	eax, DWORD PTR ___security_cookie
	xor	eax, ebp
	push	eax
	lea	eax, DWORD PTR __$EHRec$[ebp]
	mov	DWORD PTR fs:0, eax
	mov	DWORD PTR _this$[ebp], ecx

; 293  :    switch ( value.type() )

	mov	ecx, DWORD PTR _value$[ebp]
	call	?type@Value@Json@@QBE?AW4ValueType@2@XZ	; Json::Value::type
	mov	DWORD PTR tv66[ebp], eax
	cmp	DWORD PTR tv66[ebp], 7
	ja	$LN14@writeValue@2
	mov	eax, DWORD PTR tv66[ebp]
	jmp	DWORD PTR $LN30@writeValue@2[eax*4]
$LN13@writeValue@2:

; 294  :    {
; 295  :    case nullValue:
; 296  :       pushValue( "null" );

	push	OFFSET ??_C@_04MLLLIHIP@null?$AA@
	lea	ecx, DWORD PTR $T63084[ebp]
	call	DWORD PTR __imp_??0?$basic_string@DU?$char_traits@D@std@@V?$allocator@D@2@@std@@QAE@PBD@Z
	mov	DWORD PTR __$EHRec$[ebp+8], 0
	lea	ecx, DWORD PTR $T63084[ebp]
	push	ecx
	mov	ecx, DWORD PTR _this$[ebp]
	call	?pushValue@StyledWriter@Json@@AAEXABV?$basic_string@DU?$char_traits@D@std@@V?$allocator@D@2@@std@@@Z ; Json::StyledWriter::pushValue
	mov	DWORD PTR __$EHRec$[ebp+8], -1
	lea	ecx, DWORD PTR $T63084[ebp]
	call	DWORD PTR __imp_??1?$basic_string@DU?$char_traits@D@std@@V?$allocator@D@2@@std@@QAE@XZ

; 297  :       break;

	jmp	$LN14@writeValue@2
$LN12@writeValue@2:

; 298  :    case intValue:
; 299  :       pushValue( valueToString( value.asInt() ) );

	mov	ecx, DWORD PTR _value$[ebp]
	call	?asInt@Value@Json@@QBEHXZ		; Json::Value::asInt
	push	eax
	lea	edx, DWORD PTR $T63085[ebp]
	push	edx
	call	?valueToString@Json@@YA?AV?$basic_string@DU?$char_traits@D@std@@V?$allocator@D@2@@std@@H@Z ; Json::valueToString
	add	esp, 8
	mov	DWORD PTR tv69[ebp], eax
	mov	eax, DWORD PTR tv69[ebp]
	mov	DWORD PTR tv232[ebp], eax
	mov	DWORD PTR __$EHRec$[ebp+8], 1
	mov	ecx, DWORD PTR tv232[ebp]
	push	ecx
	mov	ecx, DWORD PTR _this$[ebp]
	call	?pushValue@StyledWriter@Json@@AAEXABV?$basic_string@DU?$char_traits@D@std@@V?$allocator@D@2@@std@@@Z ; Json::StyledWriter::pushValue
	mov	DWORD PTR __$EHRec$[ebp+8], -1
	lea	ecx, DWORD PTR $T63085[ebp]
	call	DWORD PTR __imp_??1?$basic_string@DU?$char_traits@D@std@@V?$allocator@D@2@@std@@QAE@XZ

; 300  :       break;

	jmp	$LN14@writeValue@2
$LN11@writeValue@2:

; 301  :    case uintValue:
; 302  :       pushValue( valueToString( value.asUInt() ) );

	mov	ecx, DWORD PTR _value$[ebp]
	call	?asUInt@Value@Json@@QBEIXZ		; Json::Value::asUInt
	push	eax
	lea	edx, DWORD PTR $T63086[ebp]
	push	edx
	call	?valueToString@Json@@YA?AV?$basic_string@DU?$char_traits@D@std@@V?$allocator@D@2@@std@@I@Z ; Json::valueToString
	add	esp, 8
	mov	DWORD PTR tv247[ebp], eax
	mov	eax, DWORD PTR tv247[ebp]
	mov	DWORD PTR tv234[ebp], eax
	mov	DWORD PTR __$EHRec$[ebp+8], 2
	mov	ecx, DWORD PTR tv234[ebp]
	push	ecx
	mov	ecx, DWORD PTR _this$[ebp]
	call	?pushValue@StyledWriter@Json@@AAEXABV?$basic_string@DU?$char_traits@D@std@@V?$allocator@D@2@@std@@@Z ; Json::StyledWriter::pushValue
	mov	DWORD PTR __$EHRec$[ebp+8], -1
	lea	ecx, DWORD PTR $T63086[ebp]
	call	DWORD PTR __imp_??1?$basic_string@DU?$char_traits@D@std@@V?$allocator@D@2@@std@@QAE@XZ

; 303  :       break;

	jmp	$LN14@writeValue@2
$LN10@writeValue@2:

; 304  :    case realValue:
; 305  :       pushValue( valueToString( value.asDouble() ) );

	mov	ecx, DWORD PTR _value$[ebp]
	call	?asDouble@Value@Json@@QBENXZ		; Json::Value::asDouble
	sub	esp, 8
	fstp	QWORD PTR [esp]
	lea	edx, DWORD PTR $T63087[ebp]
	push	edx
	call	?valueToString@Json@@YA?AV?$basic_string@DU?$char_traits@D@std@@V?$allocator@D@2@@std@@N@Z ; Json::valueToString
	add	esp, 12					; 0000000cH
	mov	DWORD PTR tv248[ebp], eax
	mov	eax, DWORD PTR tv248[ebp]
	mov	DWORD PTR tv236[ebp], eax
	mov	DWORD PTR __$EHRec$[ebp+8], 3
	mov	ecx, DWORD PTR tv236[ebp]
	push	ecx
	mov	ecx, DWORD PTR _this$[ebp]
	call	?pushValue@StyledWriter@Json@@AAEXABV?$basic_string@DU?$char_traits@D@std@@V?$allocator@D@2@@std@@@Z ; Json::StyledWriter::pushValue
	mov	DWORD PTR __$EHRec$[ebp+8], -1
	lea	ecx, DWORD PTR $T63087[ebp]
	call	DWORD PTR __imp_??1?$basic_string@DU?$char_traits@D@std@@V?$allocator@D@2@@std@@QAE@XZ

; 306  :       break;

	jmp	$LN14@writeValue@2
$LN9@writeValue@2:

; 307  :    case stringValue:
; 308  :       pushValue( valueToQuotedString( value.asCString() ) );

	mov	ecx, DWORD PTR _value$[ebp]
	call	?asCString@Value@Json@@QBEPBDXZ		; Json::Value::asCString
	push	eax
	lea	edx, DWORD PTR $T63088[ebp]
	push	edx
	call	?valueToQuotedString@Json@@YA?AV?$basic_string@DU?$char_traits@D@std@@V?$allocator@D@2@@std@@PBD@Z ; Json::valueToQuotedString
	add	esp, 8
	mov	DWORD PTR tv249[ebp], eax
	mov	eax, DWORD PTR tv249[ebp]
	mov	DWORD PTR tv238[ebp], eax
	mov	DWORD PTR __$EHRec$[ebp+8], 4
	mov	ecx, DWORD PTR tv238[ebp]
	push	ecx
	mov	ecx, DWORD PTR _this$[ebp]
	call	?pushValue@StyledWriter@Json@@AAEXABV?$basic_string@DU?$char_traits@D@std@@V?$allocator@D@2@@std@@@Z ; Json::StyledWriter::pushValue
	mov	DWORD PTR __$EHRec$[ebp+8], -1
	lea	ecx, DWORD PTR $T63088[ebp]
	call	DWORD PTR __imp_??1?$basic_string@DU?$char_traits@D@std@@V?$allocator@D@2@@std@@QAE@XZ

; 309  :       break;

	jmp	$LN14@writeValue@2
$LN8@writeValue@2:

; 310  :    case booleanValue:
; 311  :       pushValue( valueToString( value.asBool() ) );

	mov	ecx, DWORD PTR _value$[ebp]
	call	?asBool@Value@Json@@QBE_NXZ		; Json::Value::asBool
	movzx	edx, al
	push	edx
	lea	eax, DWORD PTR $T63089[ebp]
	push	eax
	call	?valueToString@Json@@YA?AV?$basic_string@DU?$char_traits@D@std@@V?$allocator@D@2@@std@@_N@Z ; Json::valueToString
	add	esp, 8
	mov	DWORD PTR tv250[ebp], eax
	mov	ecx, DWORD PTR tv250[ebp]
	mov	DWORD PTR tv240[ebp], ecx
	mov	DWORD PTR __$EHRec$[ebp+8], 5
	mov	edx, DWORD PTR tv240[ebp]
	push	edx
	mov	ecx, DWORD PTR _this$[ebp]
	call	?pushValue@StyledWriter@Json@@AAEXABV?$basic_string@DU?$char_traits@D@std@@V?$allocator@D@2@@std@@@Z ; Json::StyledWriter::pushValue
	mov	DWORD PTR __$EHRec$[ebp+8], -1
	lea	ecx, DWORD PTR $T63089[ebp]
	call	DWORD PTR __imp_??1?$basic_string@DU?$char_traits@D@std@@V?$allocator@D@2@@std@@QAE@XZ

; 312  :       break;

	jmp	$LN14@writeValue@2
$LN7@writeValue@2:

; 313  :    case arrayValue:
; 314  :       writeArrayValue( value);

	mov	eax, DWORD PTR _value$[ebp]
	push	eax
	mov	ecx, DWORD PTR _this$[ebp]
	call	?writeArrayValue@StyledWriter@Json@@AAEXABVValue@2@@Z ; Json::StyledWriter::writeArrayValue

; 315  :       break;

	jmp	$LN14@writeValue@2
$LN6@writeValue@2:

; 316  :    case objectValue:
; 317  :       {
; 318  :          Value::Members members( value.getMemberNames() );

	lea	ecx, DWORD PTR _members$56273[ebp]
	push	ecx
	mov	ecx, DWORD PTR _value$[ebp]
	call	?getMemberNames@Value@Json@@QBE?AV?$vector@V?$basic_string@DU?$char_traits@D@std@@V?$allocator@D@2@@std@@V?$allocator@V?$basic_string@DU?$char_traits@D@std@@V?$allocator@D@2@@std@@@2@@std@@XZ ; Json::Value::getMemberNames
	mov	DWORD PTR __$EHRec$[ebp+8], 6

; 319  :          if ( members.empty() )

	lea	ecx, DWORD PTR _members$56273[ebp]
	call	?empty@?$vector@V?$basic_string@DU?$char_traits@D@std@@V?$allocator@D@2@@std@@V?$allocator@V?$basic_string@DU?$char_traits@D@std@@V?$allocator@D@2@@std@@@2@@std@@QBE_NXZ ; std::vector<std::basic_string<char,std::char_traits<char>,std::allocator<char> >,std::allocator<std::basic_string<char,std::char_traits<char>,std::allocator<char> > > >::empty
	movzx	edx, al
	test	edx, edx
	je	SHORT $LN5@writeValue@2

; 320  :             pushValue( "{}" );

	push	OFFSET ??_C@_02MCILKGOH@?$HL?$HN?$AA@
	lea	ecx, DWORD PTR $T63090[ebp]
	call	DWORD PTR __imp_??0?$basic_string@DU?$char_traits@D@std@@V?$allocator@D@2@@std@@QAE@PBD@Z
	mov	BYTE PTR __$EHRec$[ebp+8], 7
	lea	eax, DWORD PTR $T63090[ebp]
	push	eax
	mov	ecx, DWORD PTR _this$[ebp]
	call	?pushValue@StyledWriter@Json@@AAEXABV?$basic_string@DU?$char_traits@D@std@@V?$allocator@D@2@@std@@@Z ; Json::StyledWriter::pushValue
	mov	BYTE PTR __$EHRec$[ebp+8], 6
	lea	ecx, DWORD PTR $T63090[ebp]
	call	DWORD PTR __imp_??1?$basic_string@DU?$char_traits@D@std@@V?$allocator@D@2@@std@@QAE@XZ

; 321  :          else

	jmp	$LN4@writeValue@2
$LN5@writeValue@2:

; 322  :          {
; 323  :             writeWithIndent( "{" );

	push	OFFSET ??_C@_01HCONENDN@?$HL?$AA@
	lea	ecx, DWORD PTR $T63091[ebp]
	call	DWORD PTR __imp_??0?$basic_string@DU?$char_traits@D@std@@V?$allocator@D@2@@std@@QAE@PBD@Z
	mov	BYTE PTR __$EHRec$[ebp+8], 8
	lea	ecx, DWORD PTR $T63091[ebp]
	push	ecx
	mov	ecx, DWORD PTR _this$[ebp]
	call	?writeWithIndent@StyledWriter@Json@@AAEXABV?$basic_string@DU?$char_traits@D@std@@V?$allocator@D@2@@std@@@Z ; Json::StyledWriter::writeWithIndent
	mov	BYTE PTR __$EHRec$[ebp+8], 6
	lea	ecx, DWORD PTR $T63091[ebp]
	call	DWORD PTR __imp_??1?$basic_string@DU?$char_traits@D@std@@V?$allocator@D@2@@std@@QAE@XZ

; 324  :             indent();

	mov	ecx, DWORD PTR _this$[ebp]
	call	?indent@StyledWriter@Json@@AAEXXZ	; Json::StyledWriter::indent

; 325  :             Value::Members::iterator it = members.begin();

	lea	edx, DWORD PTR _it$56279[ebp]
	push	edx
	lea	ecx, DWORD PTR _members$56273[ebp]
	call	?begin@?$vector@V?$basic_string@DU?$char_traits@D@std@@V?$allocator@D@2@@std@@V?$allocator@V?$basic_string@DU?$char_traits@D@std@@V?$allocator@D@2@@std@@@2@@std@@QAE?AV?$_Vector_iterator@V?$basic_string@DU?$char_traits@D@std@@V?$allocator@D@2@@std@@V?$allocator@V?$basic_string@DU?$char_traits@D@std@@V?$allocator@D@2@@std@@@2@@2@XZ ; std::vector<std::basic_string<char,std::char_traits<char>,std::allocator<char> >,std::allocator<std::basic_string<char,std::char_traits<char>,std::allocator<char> > > >::begin
$LN3@writeValue@2:

; 326  :             while ( true )

	mov	eax, 1
	test	eax, eax
	je	$LN2@writeValue@2

; 327  :             {
; 328  :                const std::string &name = *it;

	lea	ecx, DWORD PTR _it$56279[ebp]
	call	??D?$_Vector_iterator@V?$basic_string@DU?$char_traits@D@std@@V?$allocator@D@2@@std@@V?$allocator@V?$basic_string@DU?$char_traits@D@std@@V?$allocator@D@2@@std@@@2@@std@@QBEAAV?$basic_string@DU?$char_traits@D@std@@V?$allocator@D@2@@1@XZ ; std::_Vector_iterator<std::basic_string<char,std::char_traits<char>,std::allocator<char> >,std::allocator<std::basic_string<char,std::char_traits<char>,std::allocator<char> > > >::operator*
	mov	DWORD PTR _name$56284[ebp], eax

; 329  :                const Value &childValue = value[name];

	mov	ecx, DWORD PTR _name$56284[ebp]
	push	ecx
	mov	ecx, DWORD PTR _value$[ebp]
	call	??AValue@Json@@QBEABV01@ABV?$basic_string@DU?$char_traits@D@std@@V?$allocator@D@2@@std@@@Z ; Json::Value::operator[]
	mov	DWORD PTR _childValue$56285[ebp], eax

; 330  :                writeCommentBeforeValue( childValue );

	mov	edx, DWORD PTR _childValue$56285[ebp]
	push	edx
	mov	ecx, DWORD PTR _this$[ebp]
	call	?writeCommentBeforeValue@StyledWriter@Json@@AAEXABVValue@2@@Z ; Json::StyledWriter::writeCommentBeforeValue

; 331  :                writeWithIndent( valueToQuotedString( name.c_str() ) );

	mov	ecx, DWORD PTR _name$56284[ebp]
	call	DWORD PTR __imp_?c_str@?$basic_string@DU?$char_traits@D@std@@V?$allocator@D@2@@std@@QBEPBDXZ
	push	eax
	lea	eax, DWORD PTR $T63092[ebp]
	push	eax
	call	?valueToQuotedString@Json@@YA?AV?$basic_string@DU?$char_traits@D@std@@V?$allocator@D@2@@std@@PBD@Z ; Json::valueToQuotedString
	add	esp, 8
	mov	DWORD PTR tv168[ebp], eax
	mov	ecx, DWORD PTR tv168[ebp]
	mov	DWORD PTR tv245[ebp], ecx
	mov	BYTE PTR __$EHRec$[ebp+8], 9
	mov	edx, DWORD PTR tv245[ebp]
	push	edx
	mov	ecx, DWORD PTR _this$[ebp]
	call	?writeWithIndent@StyledWriter@Json@@AAEXABV?$basic_string@DU?$char_traits@D@std@@V?$allocator@D@2@@std@@@Z ; Json::StyledWriter::writeWithIndent
	mov	BYTE PTR __$EHRec$[ebp+8], 6
	lea	ecx, DWORD PTR $T63092[ebp]
	call	DWORD PTR __imp_??1?$basic_string@DU?$char_traits@D@std@@V?$allocator@D@2@@std@@QAE@XZ

; 332  :                document_ += " : ";

	push	OFFSET ??_C@_03MCPBMLDJ@?5?3?5?$AA@
	mov	ecx, DWORD PTR _this$[ebp]
	add	ecx, 28					; 0000001cH
	call	DWORD PTR __imp_??Y?$basic_string@DU?$char_traits@D@std@@V?$allocator@D@2@@std@@QAEAAV01@PBD@Z

; 333  :                writeValue( childValue );

	mov	eax, DWORD PTR _childValue$56285[ebp]
	push	eax
	mov	ecx, DWORD PTR _this$[ebp]
	call	?writeValue@StyledWriter@Json@@AAEXABVValue@2@@Z ; Json::StyledWriter::writeValue

; 334  :                if ( ++it == members.end() )

	lea	ecx, DWORD PTR $T63093[ebp]
	push	ecx
	lea	ecx, DWORD PTR _members$56273[ebp]
	call	?end@?$vector@V?$basic_string@DU?$char_traits@D@std@@V?$allocator@D@2@@std@@V?$allocator@V?$basic_string@DU?$char_traits@D@std@@V?$allocator@D@2@@std@@@2@@std@@QAE?AV?$_Vector_iterator@V?$basic_string@DU?$char_traits@D@std@@V?$allocator@D@2@@std@@V?$allocator@V?$basic_string@DU?$char_traits@D@std@@V?$allocator@D@2@@std@@@2@@2@XZ ; std::vector<std::basic_string<char,std::char_traits<char>,std::allocator<char> >,std::allocator<std::basic_string<char,std::char_traits<char>,std::allocator<char> > > >::end
	push	eax
	lea	ecx, DWORD PTR _it$56279[ebp]
	call	??E?$_Vector_iterator@V?$basic_string@DU?$char_traits@D@std@@V?$allocator@D@2@@std@@V?$allocator@V?$basic_string@DU?$char_traits@D@std@@V?$allocator@D@2@@std@@@2@@std@@QAEAAV01@XZ ; std::_Vector_iterator<std::basic_string<char,std::char_traits<char>,std::allocator<char> >,std::allocator<std::basic_string<char,std::char_traits<char>,std::allocator<char> > > >::operator++
	mov	ecx, eax
	call	??8?$_Vector_const_iterator@V?$basic_string@DU?$char_traits@D@std@@V?$allocator@D@2@@std@@V?$allocator@V?$basic_string@DU?$char_traits@D@std@@V?$allocator@D@2@@std@@@2@@std@@QBE_NABV01@@Z ; std::_Vector_const_iterator<std::basic_string<char,std::char_traits<char>,std::allocator<char> >,std::allocator<std::basic_string<char,std::char_traits<char>,std::allocator<char> > > >::operator==
	movzx	edx, al
	test	edx, edx
	je	SHORT $LN1@writeValue@2

; 335  :                {
; 336  :                   writeCommentAfterValueOnSameLine( childValue );

	mov	eax, DWORD PTR _childValue$56285[ebp]
	push	eax
	mov	ecx, DWORD PTR _this$[ebp]
	call	?writeCommentAfterValueOnSameLine@StyledWriter@Json@@AAEXABVValue@2@@Z ; Json::StyledWriter::writeCommentAfterValueOnSameLine

; 337  :                   break;

	jmp	SHORT $LN2@writeValue@2
$LN1@writeValue@2:

; 338  :                }
; 339  :                document_ += ",";

	push	OFFSET ??_C@_01IHBHIGKO@?0?$AA@
	mov	ecx, DWORD PTR _this$[ebp]
	add	ecx, 28					; 0000001cH
	call	DWORD PTR __imp_??Y?$basic_string@DU?$char_traits@D@std@@V?$allocator@D@2@@std@@QAEAAV01@PBD@Z

; 340  :                writeCommentAfterValueOnSameLine( childValue );

	mov	ecx, DWORD PTR _childValue$56285[ebp]
	push	ecx
	mov	ecx, DWORD PTR _this$[ebp]
	call	?writeCommentAfterValueOnSameLine@StyledWriter@Json@@AAEXABVValue@2@@Z ; Json::StyledWriter::writeCommentAfterValueOnSameLine

; 341  :             }

	jmp	$LN3@writeValue@2
$LN2@writeValue@2:

; 342  :             unindent();

	mov	ecx, DWORD PTR _this$[ebp]
	call	?unindent@StyledWriter@Json@@AAEXXZ	; Json::StyledWriter::unindent

; 343  :             writeWithIndent( "}" );

	push	OFFSET ??_C@_01CELHOKLL@?$HN?$AA@
	lea	ecx, DWORD PTR $T63094[ebp]
	call	DWORD PTR __imp_??0?$basic_string@DU?$char_traits@D@std@@V?$allocator@D@2@@std@@QAE@PBD@Z
	mov	BYTE PTR __$EHRec$[ebp+8], 10		; 0000000aH
	lea	edx, DWORD PTR $T63094[ebp]
	push	edx
	mov	ecx, DWORD PTR _this$[ebp]
	call	?writeWithIndent@StyledWriter@Json@@AAEXABV?$basic_string@DU?$char_traits@D@std@@V?$allocator@D@2@@std@@@Z ; Json::StyledWriter::writeWithIndent
	mov	BYTE PTR __$EHRec$[ebp+8], 6
	lea	ecx, DWORD PTR $T63094[ebp]
	call	DWORD PTR __imp_??1?$basic_string@DU?$char_traits@D@std@@V?$allocator@D@2@@std@@QAE@XZ
$LN4@writeValue@2:

; 344  :          }
; 345  :       }

	mov	DWORD PTR __$EHRec$[ebp+8], -1
	lea	ecx, DWORD PTR _members$56273[ebp]
	call	??1?$vector@V?$basic_string@DU?$char_traits@D@std@@V?$allocator@D@2@@std@@V?$allocator@V?$basic_string@DU?$char_traits@D@std@@V?$allocator@D@2@@std@@@2@@std@@QAE@XZ ; std::vector<std::basic_string<char,std::char_traits<char>,std::allocator<char> >,std::allocator<std::basic_string<char,std::char_traits<char>,std::allocator<char> > > >::~vector<std::basic_string<char,std::char_traits<char>,std::allocator<char> >,std::allocator<std::basic_string<char,std::char_traits<char>,std::allocator<char> > > >
$LN14@writeValue@2:

; 346  :       break;
; 347  :    }
; 348  : }

	mov	ecx, DWORD PTR __$EHRec$[ebp]
	mov	DWORD PTR fs:0, ecx
	pop	ecx
	mov	esp, ebp
	pop	ebp
	ret	4
	npad	1
$LN30@writeValue@2:
	DD	$LN13@writeValue@2
	DD	$LN12@writeValue@2
	DD	$LN11@writeValue@2
	DD	$LN10@writeValue@2
	DD	$LN9@writeValue@2
	DD	$LN8@writeValue@2
	DD	$LN7@writeValue@2
	DD	$LN6@writeValue@2
_TEXT	ENDS
;	COMDAT text$x
text$x	SEGMENT
__unwindfunclet$?writeValue@StyledWriter@Json@@AAEXABVValue@2@@Z$0:
	lea	ecx, DWORD PTR $T63084[ebp]
	jmp	DWORD PTR __imp_??1?$basic_string@DU?$char_traits@D@std@@V?$allocator@D@2@@std@@QAE@XZ
__unwindfunclet$?writeValue@StyledWriter@Json@@AAEXABVValue@2@@Z$1:
	lea	ecx, DWORD PTR $T63085[ebp]
	jmp	DWORD PTR __imp_??1?$basic_string@DU?$char_traits@D@std@@V?$allocator@D@2@@std@@QAE@XZ
__unwindfunclet$?writeValue@StyledWriter@Json@@AAEXABVValue@2@@Z$2:
	lea	ecx, DWORD PTR $T63086[ebp]
	jmp	DWORD PTR __imp_??1?$basic_string@DU?$char_traits@D@std@@V?$allocator@D@2@@std@@QAE@XZ
__unwindfunclet$?writeValue@StyledWriter@Json@@AAEXABVValue@2@@Z$3:
	lea	ecx, DWORD PTR $T63087[ebp]
	jmp	DWORD PTR __imp_??1?$basic_string@DU?$char_traits@D@std@@V?$allocator@D@2@@std@@QAE@XZ
__unwindfunclet$?writeValue@StyledWriter@Json@@AAEXABVValue@2@@Z$4:
	lea	ecx, DWORD PTR $T63088[ebp]
	jmp	DWORD PTR __imp_??1?$basic_string@DU?$char_traits@D@std@@V?$allocator@D@2@@std@@QAE@XZ
__unwindfunclet$?writeValue@StyledWriter@Json@@AAEXABVValue@2@@Z$5:
	lea	ecx, DWORD PTR $T63089[ebp]
	jmp	DWORD PTR __imp_??1?$basic_string@DU?$char_traits@D@std@@V?$allocator@D@2@@std@@QAE@XZ
__unwindfunclet$?writeValue@StyledWriter@Json@@AAEXABVValue@2@@Z$6:
	lea	ecx, DWORD PTR _members$56273[ebp]
	jmp	??1?$vector@V?$basic_string@DU?$char_traits@D@std@@V?$allocator@D@2@@std@@V?$allocator@V?$basic_string@DU?$char_traits@D@std@@V?$allocator@D@2@@std@@@2@@std@@QAE@XZ ; std::vector<std::basic_string<char,std::char_traits<char>,std::allocator<char> >,std::allocator<std::basic_string<char,std::char_traits<char>,std::allocator<char> > > >::~vector<std::basic_string<char,std::char_traits<char>,std::allocator<char> >,std::allocator<std::basic_string<char,std::char_traits<char>,std::allocator<char> > > >
__unwindfunclet$?writeValue@StyledWriter@Json@@AAEXABVValue@2@@Z$7:
	lea	ecx, DWORD PTR $T63090[ebp]
	jmp	DWORD PTR __imp_??1?$basic_string@DU?$char_traits@D@std@@V?$allocator@D@2@@std@@QAE@XZ
__unwindfunclet$?writeValue@StyledWriter@Json@@AAEXABVValue@2@@Z$8:
	lea	ecx, DWORD PTR $T63091[ebp]
	jmp	DWORD PTR __imp_??1?$basic_string@DU?$char_traits@D@std@@V?$allocator@D@2@@std@@QAE@XZ
__unwindfunclet$?writeValue@StyledWriter@Json@@AAEXABVValue@2@@Z$9:
	lea	ecx, DWORD PTR $T63092[ebp]
	jmp	DWORD PTR __imp_??1?$basic_string@DU?$char_traits@D@std@@V?$allocator@D@2@@std@@QAE@XZ
__unwindfunclet$?writeValue@StyledWriter@Json@@AAEXABVValue@2@@Z$10:
	lea	ecx, DWORD PTR $T63094[ebp]
	jmp	DWORD PTR __imp_??1?$basic_string@DU?$char_traits@D@std@@V?$allocator@D@2@@std@@QAE@XZ
__ehhandler$?writeValue@StyledWriter@Json@@AAEXABVValue@2@@Z:
	mov	edx, DWORD PTR [esp+8]
	lea	eax, DWORD PTR [edx+12]
	mov	ecx, DWORD PTR [edx-388]
	xor	ecx, eax
	call	@__security_check_cookie@4
	mov	eax, OFFSET __ehfuncinfo$?writeValue@StyledWriter@Json@@AAEXABVValue@2@@Z
	jmp	___CxxFrameHandler3
text$x	ENDS
?writeValue@StyledWriter@Json@@AAEXABVValue@2@@Z ENDP	; Json::StyledWriter::writeValue
PUBLIC	??_C@_02DHOGEDBE@?5?$FN?$AA@			; `string'
PUBLIC	??_C@_02KEGNLNML@?0?5?$AA@			; `string'
PUBLIC	??_C@_02PFNDMDBO@?$FL?5?$AA@			; `string'
PUBLIC	?writeIndent@StyledWriter@Json@@AAEXXZ		; Json::StyledWriter::writeIndent
PUBLIC	??A?$vector@V?$basic_string@DU?$char_traits@D@std@@V?$allocator@D@2@@std@@V?$allocator@V?$basic_string@DU?$char_traits@D@std@@V?$allocator@D@2@@std@@@2@@std@@QAEAAV?$basic_string@DU?$char_traits@D@std@@V?$allocator@D@2@@1@I@Z ; std::vector<std::basic_string<char,std::char_traits<char>,std::allocator<char> >,std::allocator<std::basic_string<char,std::char_traits<char>,std::allocator<char> > > >::operator[]
PUBLIC	?isMultineArray@StyledWriter@Json@@AAE_NABVValue@2@@Z ; Json::StyledWriter::isMultineArray
PUBLIC	??_C@_02GPECMEKF@?$FL?$FN?$AA@			; `string'
;	COMDAT ??_C@_02DHOGEDBE@?5?$FN?$AA@
CONST	SEGMENT
??_C@_02DHOGEDBE@?5?$FN?$AA@ DB ' ]', 00H		; `string'
CONST	ENDS
;	COMDAT ??_C@_02KEGNLNML@?0?5?$AA@
CONST	SEGMENT
??_C@_02KEGNLNML@?0?5?$AA@ DB ', ', 00H			; `string'
CONST	ENDS
;	COMDAT ??_C@_02PFNDMDBO@?$FL?5?$AA@
CONST	SEGMENT
??_C@_02PFNDMDBO@?$FL?5?$AA@ DB '[ ', 00H		; `string'
CONST	ENDS
;	COMDAT ??_C@_02GPECMEKF@?$FL?$FN?$AA@
CONST	SEGMENT
??_C@_02GPECMEKF@?$FL?$FN?$AA@ DB '[]', 00H		; `string'
CONST	ENDS
;	COMDAT xdata$x
xdata$x	SEGMENT
__unwindtable$?writeArrayValue@StyledWriter@Json@@AAEXABVValue@2@@Z DD 0ffffffffH
	DD	FLAT:__unwindfunclet$?writeArrayValue@StyledWriter@Json@@AAEXABVValue@2@@Z$0
	DD	0ffffffffH
	DD	FLAT:__unwindfunclet$?writeArrayValue@StyledWriter@Json@@AAEXABVValue@2@@Z$1
	DD	0ffffffffH
	DD	FLAT:__unwindfunclet$?writeArrayValue@StyledWriter@Json@@AAEXABVValue@2@@Z$2
__ehfuncinfo$?writeArrayValue@StyledWriter@Json@@AAEXABVValue@2@@Z DD 019930522H
	DD	03H
	DD	FLAT:__unwindtable$?writeArrayValue@StyledWriter@Json@@AAEXABVValue@2@@Z
	DD	2 DUP(00H)
	DD	2 DUP(00H)
	DD	00H
	DD	01H
; Function compile flags: /Odtp
xdata$x	ENDS
;	COMDAT ?writeArrayValue@StyledWriter@Json@@AAEXABVValue@2@@Z
_TEXT	SEGMENT
_this$ = -120						; size = 4
$T63117 = -116						; size = 28
$T63116 = -88						; size = 28
$T63115 = -60						; size = 28
_index$56316 = -32					; size = 4
_childValue$56308 = -28					; size = 4
_index$56304 = -24					; size = 4
_hasChildValue$56303 = -18				; size = 1
_isArrayMultiLine$56300 = -17				; size = 1
_size$ = -16						; size = 4
__$EHRec$ = -12						; size = 12
_value$ = 8						; size = 4
?writeArrayValue@StyledWriter@Json@@AAEXABVValue@2@@Z PROC ; Json::StyledWriter::writeArrayValue, COMDAT
; _this$ = ecx

; 353  : {

	push	ebp
	mov	ebp, esp
	push	-1
	push	__ehhandler$?writeArrayValue@StyledWriter@Json@@AAEXABVValue@2@@Z
	mov	eax, DWORD PTR fs:0
	push	eax
	sub	esp, 108				; 0000006cH
	mov	eax, DWORD PTR ___security_cookie
	xor	eax, ebp
	push	eax
	lea	eax, DWORD PTR __$EHRec$[ebp]
	mov	DWORD PTR fs:0, eax
	mov	DWORD PTR _this$[ebp], ecx

; 354  :    unsigned size = value.size();

	mov	ecx, DWORD PTR _value$[ebp]
	call	?size@Value@Json@@QBEIXZ		; Json::Value::size
	mov	DWORD PTR _size$[ebp], eax

; 355  :    if ( size == 0 )

	cmp	DWORD PTR _size$[ebp], 0
	jne	SHORT $LN13@writeArray

; 356  :       pushValue( "[]" );

	push	OFFSET ??_C@_02GPECMEKF@?$FL?$FN?$AA@
	lea	ecx, DWORD PTR $T63115[ebp]
	call	DWORD PTR __imp_??0?$basic_string@DU?$char_traits@D@std@@V?$allocator@D@2@@std@@QAE@PBD@Z
	mov	DWORD PTR __$EHRec$[ebp+8], 0
	lea	eax, DWORD PTR $T63115[ebp]
	push	eax
	mov	ecx, DWORD PTR _this$[ebp]
	call	?pushValue@StyledWriter@Json@@AAEXABV?$basic_string@DU?$char_traits@D@std@@V?$allocator@D@2@@std@@@Z ; Json::StyledWriter::pushValue
	mov	DWORD PTR __$EHRec$[ebp+8], -1
	lea	ecx, DWORD PTR $T63115[ebp]
	call	DWORD PTR __imp_??1?$basic_string@DU?$char_traits@D@std@@V?$allocator@D@2@@std@@QAE@XZ

; 357  :    else

	jmp	$LN14@writeArray
$LN13@writeArray:

; 358  :    {
; 359  :       bool isArrayMultiLine = isMultineArray( value );

	mov	ecx, DWORD PTR _value$[ebp]
	push	ecx
	mov	ecx, DWORD PTR _this$[ebp]
	call	?isMultineArray@StyledWriter@Json@@AAE_NABVValue@2@@Z ; Json::StyledWriter::isMultineArray
	mov	BYTE PTR _isArrayMultiLine$56300[ebp], al

; 360  :       if ( isArrayMultiLine )

	movzx	edx, BYTE PTR _isArrayMultiLine$56300[ebp]
	test	edx, edx
	je	$LN11@writeArray

; 361  :       {
; 362  :          writeWithIndent( "[" );

	push	OFFSET ??_C@_01OHGJGJJP@?$FL?$AA@
	lea	ecx, DWORD PTR $T63116[ebp]
	call	DWORD PTR __imp_??0?$basic_string@DU?$char_traits@D@std@@V?$allocator@D@2@@std@@QAE@PBD@Z
	mov	DWORD PTR __$EHRec$[ebp+8], 1
	lea	eax, DWORD PTR $T63116[ebp]
	push	eax
	mov	ecx, DWORD PTR _this$[ebp]
	call	?writeWithIndent@StyledWriter@Json@@AAEXABV?$basic_string@DU?$char_traits@D@std@@V?$allocator@D@2@@std@@@Z ; Json::StyledWriter::writeWithIndent
	mov	DWORD PTR __$EHRec$[ebp+8], -1
	lea	ecx, DWORD PTR $T63116[ebp]
	call	DWORD PTR __imp_??1?$basic_string@DU?$char_traits@D@std@@V?$allocator@D@2@@std@@QAE@XZ

; 363  :          indent();

	mov	ecx, DWORD PTR _this$[ebp]
	call	?indent@StyledWriter@Json@@AAEXXZ	; Json::StyledWriter::indent

; 364  :          bool hasChildValue = !childValues_.empty();

	mov	ecx, DWORD PTR _this$[ebp]
	add	ecx, 4
	call	?empty@?$vector@V?$basic_string@DU?$char_traits@D@std@@V?$allocator@D@2@@std@@V?$allocator@V?$basic_string@DU?$char_traits@D@std@@V?$allocator@D@2@@std@@@2@@std@@QBE_NXZ ; std::vector<std::basic_string<char,std::char_traits<char>,std::allocator<char> >,std::allocator<std::basic_string<char,std::char_traits<char>,std::allocator<char> > > >::empty
	movzx	ecx, al
	neg	ecx
	sbb	ecx, ecx
	add	ecx, 1
	mov	BYTE PTR _hasChildValue$56303[ebp], cl

; 365  :          unsigned index =0;

	mov	DWORD PTR _index$56304[ebp], 0
$LN10@writeArray:

; 366  :          while ( true )

	mov	edx, 1
	test	edx, edx
	je	$LN9@writeArray

; 367  :          {
; 368  :             const Value &childValue = value[index];

	mov	eax, DWORD PTR _index$56304[ebp]
	push	eax
	mov	ecx, DWORD PTR _value$[ebp]
	call	??AValue@Json@@QBEABV01@I@Z		; Json::Value::operator[]
	mov	DWORD PTR _childValue$56308[ebp], eax

; 369  :             writeCommentBeforeValue( childValue );

	mov	ecx, DWORD PTR _childValue$56308[ebp]
	push	ecx
	mov	ecx, DWORD PTR _this$[ebp]
	call	?writeCommentBeforeValue@StyledWriter@Json@@AAEXABVValue@2@@Z ; Json::StyledWriter::writeCommentBeforeValue

; 370  :             if ( hasChildValue )

	movzx	edx, BYTE PTR _hasChildValue$56303[ebp]
	test	edx, edx
	je	SHORT $LN8@writeArray

; 371  :                writeWithIndent( childValues_[index] );

	mov	eax, DWORD PTR _index$56304[ebp]
	push	eax
	mov	ecx, DWORD PTR _this$[ebp]
	add	ecx, 4
	call	??A?$vector@V?$basic_string@DU?$char_traits@D@std@@V?$allocator@D@2@@std@@V?$allocator@V?$basic_string@DU?$char_traits@D@std@@V?$allocator@D@2@@std@@@2@@std@@QAEAAV?$basic_string@DU?$char_traits@D@std@@V?$allocator@D@2@@1@I@Z ; std::vector<std::basic_string<char,std::char_traits<char>,std::allocator<char> >,std::allocator<std::basic_string<char,std::char_traits<char>,std::allocator<char> > > >::operator[]
	push	eax
	mov	ecx, DWORD PTR _this$[ebp]
	call	?writeWithIndent@StyledWriter@Json@@AAEXABV?$basic_string@DU?$char_traits@D@std@@V?$allocator@D@2@@std@@@Z ; Json::StyledWriter::writeWithIndent

; 372  :             else

	jmp	SHORT $LN7@writeArray
$LN8@writeArray:

; 373  :             {
; 374  :                writeIndent();

	mov	ecx, DWORD PTR _this$[ebp]
	call	?writeIndent@StyledWriter@Json@@AAEXXZ	; Json::StyledWriter::writeIndent

; 375  :                writeValue( childValue );

	mov	ecx, DWORD PTR _childValue$56308[ebp]
	push	ecx
	mov	ecx, DWORD PTR _this$[ebp]
	call	?writeValue@StyledWriter@Json@@AAEXABVValue@2@@Z ; Json::StyledWriter::writeValue
$LN7@writeArray:

; 376  :             }
; 377  :             if ( ++index == size )

	mov	edx, DWORD PTR _index$56304[ebp]
	add	edx, 1
	mov	DWORD PTR _index$56304[ebp], edx
	mov	eax, DWORD PTR _index$56304[ebp]
	cmp	eax, DWORD PTR _size$[ebp]
	jne	SHORT $LN6@writeArray

; 378  :             {
; 379  :                writeCommentAfterValueOnSameLine( childValue );

	mov	ecx, DWORD PTR _childValue$56308[ebp]
	push	ecx
	mov	ecx, DWORD PTR _this$[ebp]
	call	?writeCommentAfterValueOnSameLine@StyledWriter@Json@@AAEXABVValue@2@@Z ; Json::StyledWriter::writeCommentAfterValueOnSameLine

; 380  :                break;

	jmp	SHORT $LN9@writeArray
$LN6@writeArray:

; 381  :             }
; 382  :             document_ += ",";

	push	OFFSET ??_C@_01IHBHIGKO@?0?$AA@
	mov	ecx, DWORD PTR _this$[ebp]
	add	ecx, 28					; 0000001cH
	call	DWORD PTR __imp_??Y?$basic_string@DU?$char_traits@D@std@@V?$allocator@D@2@@std@@QAEAAV01@PBD@Z

; 383  :             writeCommentAfterValueOnSameLine( childValue );

	mov	edx, DWORD PTR _childValue$56308[ebp]
	push	edx
	mov	ecx, DWORD PTR _this$[ebp]
	call	?writeCommentAfterValueOnSameLine@StyledWriter@Json@@AAEXABVValue@2@@Z ; Json::StyledWriter::writeCommentAfterValueOnSameLine

; 384  :          }

	jmp	$LN10@writeArray
$LN9@writeArray:

; 385  :          unindent();

	mov	ecx, DWORD PTR _this$[ebp]
	call	?unindent@StyledWriter@Json@@AAEXXZ	; Json::StyledWriter::unindent

; 386  :          writeWithIndent( "]" );

	push	OFFSET ??_C@_01LBDDMOBJ@?$FN?$AA@
	lea	ecx, DWORD PTR $T63117[ebp]
	call	DWORD PTR __imp_??0?$basic_string@DU?$char_traits@D@std@@V?$allocator@D@2@@std@@QAE@PBD@Z
	mov	DWORD PTR __$EHRec$[ebp+8], 2
	lea	eax, DWORD PTR $T63117[ebp]
	push	eax
	mov	ecx, DWORD PTR _this$[ebp]
	call	?writeWithIndent@StyledWriter@Json@@AAEXABV?$basic_string@DU?$char_traits@D@std@@V?$allocator@D@2@@std@@@Z ; Json::StyledWriter::writeWithIndent
	mov	DWORD PTR __$EHRec$[ebp+8], -1
	lea	ecx, DWORD PTR $T63117[ebp]
	call	DWORD PTR __imp_??1?$basic_string@DU?$char_traits@D@std@@V?$allocator@D@2@@std@@QAE@XZ

; 387  :       }
; 388  :       else // output on a single line

	jmp	SHORT $LN14@writeArray
$LN11@writeArray:

; 389  :       {
; 390  :          assert( childValues_.size() == size );
; 391  :          document_ += "[ ";

	push	OFFSET ??_C@_02PFNDMDBO@?$FL?5?$AA@
	mov	ecx, DWORD PTR _this$[ebp]
	add	ecx, 28					; 0000001cH
	call	DWORD PTR __imp_??Y?$basic_string@DU?$char_traits@D@std@@V?$allocator@D@2@@std@@QAEAAV01@PBD@Z

; 392  :          for ( unsigned index =0; index < size; ++index )

	mov	DWORD PTR _index$56316[ebp], 0
	jmp	SHORT $LN4@writeArray
$LN3@writeArray:
	mov	ecx, DWORD PTR _index$56316[ebp]
	add	ecx, 1
	mov	DWORD PTR _index$56316[ebp], ecx
$LN4@writeArray:
	mov	edx, DWORD PTR _index$56316[ebp]
	cmp	edx, DWORD PTR _size$[ebp]
	jae	SHORT $LN2@writeArray

; 393  :          {
; 394  :             if ( index > 0 )

	cmp	DWORD PTR _index$56316[ebp], 0
	jbe	SHORT $LN1@writeArray

; 395  :                document_ += ", ";

	push	OFFSET ??_C@_02KEGNLNML@?0?5?$AA@
	mov	ecx, DWORD PTR _this$[ebp]
	add	ecx, 28					; 0000001cH
	call	DWORD PTR __imp_??Y?$basic_string@DU?$char_traits@D@std@@V?$allocator@D@2@@std@@QAEAAV01@PBD@Z
$LN1@writeArray:

; 396  :             document_ += childValues_[index];

	mov	eax, DWORD PTR _index$56316[ebp]
	push	eax
	mov	ecx, DWORD PTR _this$[ebp]
	add	ecx, 4
	call	??A?$vector@V?$basic_string@DU?$char_traits@D@std@@V?$allocator@D@2@@std@@V?$allocator@V?$basic_string@DU?$char_traits@D@std@@V?$allocator@D@2@@std@@@2@@std@@QAEAAV?$basic_string@DU?$char_traits@D@std@@V?$allocator@D@2@@1@I@Z ; std::vector<std::basic_string<char,std::char_traits<char>,std::allocator<char> >,std::allocator<std::basic_string<char,std::char_traits<char>,std::allocator<char> > > >::operator[]
	push	eax
	mov	ecx, DWORD PTR _this$[ebp]
	add	ecx, 28					; 0000001cH
	call	DWORD PTR __imp_??Y?$basic_string@DU?$char_traits@D@std@@V?$allocator@D@2@@std@@QAEAAV01@ABV01@@Z

; 397  :          }

	jmp	SHORT $LN3@writeArray
$LN2@writeArray:

; 398  :          document_ += " ]";

	push	OFFSET ??_C@_02DHOGEDBE@?5?$FN?$AA@
	mov	ecx, DWORD PTR _this$[ebp]
	add	ecx, 28					; 0000001cH
	call	DWORD PTR __imp_??Y?$basic_string@DU?$char_traits@D@std@@V?$allocator@D@2@@std@@QAEAAV01@PBD@Z
$LN14@writeArray:

; 399  :       }
; 400  :    }
; 401  : }

	mov	ecx, DWORD PTR __$EHRec$[ebp]
	mov	DWORD PTR fs:0, ecx
	pop	ecx
	mov	esp, ebp
	pop	ebp
	ret	4
_TEXT	ENDS
;	COMDAT text$x
text$x	SEGMENT
__unwindfunclet$?writeArrayValue@StyledWriter@Json@@AAEXABVValue@2@@Z$0:
	lea	ecx, DWORD PTR $T63115[ebp]
	jmp	DWORD PTR __imp_??1?$basic_string@DU?$char_traits@D@std@@V?$allocator@D@2@@std@@QAE@XZ
__unwindfunclet$?writeArrayValue@StyledWriter@Json@@AAEXABVValue@2@@Z$1:
	lea	ecx, DWORD PTR $T63116[ebp]
	jmp	DWORD PTR __imp_??1?$basic_string@DU?$char_traits@D@std@@V?$allocator@D@2@@std@@QAE@XZ
__unwindfunclet$?writeArrayValue@StyledWriter@Json@@AAEXABVValue@2@@Z$2:
	lea	ecx, DWORD PTR $T63117[ebp]
	jmp	DWORD PTR __imp_??1?$basic_string@DU?$char_traits@D@std@@V?$allocator@D@2@@std@@QAE@XZ
__ehhandler$?writeArrayValue@StyledWriter@Json@@AAEXABVValue@2@@Z:
	mov	edx, DWORD PTR [esp+8]
	lea	eax, DWORD PTR [edx+12]
	mov	ecx, DWORD PTR [edx-112]
	xor	ecx, eax
	call	@__security_check_cookie@4
	mov	eax, OFFSET __ehfuncinfo$?writeArrayValue@StyledWriter@Json@@AAEXABVValue@2@@Z
	jmp	___CxxFrameHandler3
text$x	ENDS
?writeArrayValue@StyledWriter@Json@@AAEXABVValue@2@@Z ENDP ; Json::StyledWriter::writeArrayValue
PUBLIC	?hasCommentForValue@StyledWriter@Json@@AAE_NABVValue@2@@Z ; Json::StyledWriter::hasCommentForValue
PUBLIC	?reserve@?$vector@V?$basic_string@DU?$char_traits@D@std@@V?$allocator@D@2@@std@@V?$allocator@V?$basic_string@DU?$char_traits@D@std@@V?$allocator@D@2@@std@@@2@@std@@QAEXI@Z ; std::vector<std::basic_string<char,std::char_traits<char>,std::allocator<char> >,std::allocator<std::basic_string<char,std::char_traits<char>,std::allocator<char> > > >::reserve
PUBLIC	?clear@?$vector@V?$basic_string@DU?$char_traits@D@std@@V?$allocator@D@2@@std@@V?$allocator@V?$basic_string@DU?$char_traits@D@std@@V?$allocator@D@2@@std@@@2@@std@@QAEXXZ ; std::vector<std::basic_string<char,std::char_traits<char>,std::allocator<char> >,std::allocator<std::basic_string<char,std::char_traits<char>,std::allocator<char> > > >::clear
EXTRN	__imp_?length@?$basic_string@DU?$char_traits@D@std@@V?$allocator@D@2@@std@@QBEIXZ:PROC
EXTRN	?isObject@Value@Json@@QBE_NXZ:PROC		; Json::Value::isObject
EXTRN	?isArray@Value@Json@@QBE_NXZ:PROC		; Json::Value::isArray
; Function compile flags: /Odtp
;	COMDAT ?isMultineArray@StyledWriter@Json@@AAE_NABVValue@2@@Z
_TEXT	SEGMENT
tv169 = -40						; size = 4
tv162 = -36						; size = 4
tv93 = -32						; size = 4
_this$ = -28						; size = 4
_index$56336 = -24					; size = 4
_lineLength$56335 = -20					; size = 4
_childValue$56333 = -16					; size = 4
_index$56329 = -12					; size = 4
_size$ = -8						; size = 4
_isMultiLine$ = -1					; size = 1
_value$ = 8						; size = 4
?isMultineArray@StyledWriter@Json@@AAE_NABVValue@2@@Z PROC ; Json::StyledWriter::isMultineArray, COMDAT
; _this$ = ecx

; 406  : {

	push	ebp
	mov	ebp, esp
	sub	esp, 40					; 00000028H
	mov	DWORD PTR _this$[ebp], ecx

; 407  :    int size = value.size();

	mov	ecx, DWORD PTR _value$[ebp]
	call	?size@Value@Json@@QBEIXZ		; Json::Value::size
	mov	DWORD PTR _size$[ebp], eax

; 408  :    bool isMultiLine = size*3 >= rightMargin_ ;

	mov	eax, DWORD PTR _size$[ebp]
	imul	eax, 3
	mov	ecx, DWORD PTR _this$[ebp]
	xor	edx, edx
	cmp	eax, DWORD PTR [ecx+84]
	setge	dl
	mov	BYTE PTR _isMultiLine$[ebp], dl

; 409  :    childValues_.clear();

	mov	ecx, DWORD PTR _this$[ebp]
	add	ecx, 4
	call	?clear@?$vector@V?$basic_string@DU?$char_traits@D@std@@V?$allocator@D@2@@std@@V?$allocator@V?$basic_string@DU?$char_traits@D@std@@V?$allocator@D@2@@std@@@2@@std@@QAEXXZ ; std::vector<std::basic_string<char,std::char_traits<char>,std::allocator<char> >,std::allocator<std::basic_string<char,std::char_traits<char>,std::allocator<char> > > >::clear

; 410  :    for ( int index =0; index < size  &&  !isMultiLine; ++index )

	mov	DWORD PTR _index$56329[ebp], 0
	jmp	SHORT $LN7@isMultineA
$LN6@isMultineA:
	mov	eax, DWORD PTR _index$56329[ebp]
	add	eax, 1
	mov	DWORD PTR _index$56329[ebp], eax
$LN7@isMultineA:
	mov	ecx, DWORD PTR _index$56329[ebp]
	cmp	ecx, DWORD PTR _size$[ebp]
	jge	SHORT $LN5@isMultineA
	movzx	edx, BYTE PTR _isMultiLine$[ebp]
	test	edx, edx
	jne	SHORT $LN5@isMultineA

; 411  :    {
; 412  :       const Value &childValue = value[index];

	mov	eax, DWORD PTR _index$56329[ebp]
	push	eax
	mov	ecx, DWORD PTR _value$[ebp]
	call	??AValue@Json@@QBEABV01@I@Z		; Json::Value::operator[]
	mov	DWORD PTR _childValue$56333[ebp], eax

; 413  :       isMultiLine = isMultiLine  ||
; 414  :                      ( (childValue.isArray()  ||  childValue.isObject())  &&  
; 415  :                         childValue.size() > 0 );

	movzx	ecx, BYTE PTR _isMultiLine$[ebp]
	test	ecx, ecx
	jne	SHORT $LN12@isMultineA
	mov	ecx, DWORD PTR _childValue$56333[ebp]
	call	?isArray@Value@Json@@QBE_NXZ		; Json::Value::isArray
	movzx	edx, al
	test	edx, edx
	jne	SHORT $LN10@isMultineA
	mov	ecx, DWORD PTR _childValue$56333[ebp]
	call	?isObject@Value@Json@@QBE_NXZ		; Json::Value::isObject
	movzx	eax, al
	test	eax, eax
	je	SHORT $LN11@isMultineA
$LN10@isMultineA:
	mov	ecx, DWORD PTR _childValue$56333[ebp]
	call	?size@Value@Json@@QBEIXZ		; Json::Value::size
	test	eax, eax
	ja	SHORT $LN12@isMultineA
$LN11@isMultineA:
	mov	DWORD PTR tv93[ebp], 0
	jmp	SHORT $LN13@isMultineA
$LN12@isMultineA:
	mov	DWORD PTR tv93[ebp], 1
$LN13@isMultineA:
	mov	cl, BYTE PTR tv93[ebp]
	mov	BYTE PTR _isMultiLine$[ebp], cl

; 416  :    }

	jmp	SHORT $LN6@isMultineA
$LN5@isMultineA:

; 417  :    if ( !isMultiLine ) // check if line length > max line length

	movzx	edx, BYTE PTR _isMultiLine$[ebp]
	test	edx, edx
	jne	$LN4@isMultineA

; 418  :    {
; 419  :       childValues_.reserve( size );

	mov	eax, DWORD PTR _size$[ebp]
	push	eax
	mov	ecx, DWORD PTR _this$[ebp]
	add	ecx, 4
	call	?reserve@?$vector@V?$basic_string@DU?$char_traits@D@std@@V?$allocator@D@2@@std@@V?$allocator@V?$basic_string@DU?$char_traits@D@std@@V?$allocator@D@2@@std@@@2@@std@@QAEXI@Z ; std::vector<std::basic_string<char,std::char_traits<char>,std::allocator<char> >,std::allocator<std::basic_string<char,std::char_traits<char>,std::allocator<char> > > >::reserve

; 420  :       addChildValues_ = true;

	mov	ecx, DWORD PTR _this$[ebp]
	mov	BYTE PTR [ecx+92], 1

; 421  :       int lineLength = 4 + (size-1)*2; // '[ ' + ', '*n + ' ]'

	mov	edx, DWORD PTR _size$[ebp]
	lea	eax, DWORD PTR [edx+edx+2]
	mov	DWORD PTR _lineLength$56335[ebp], eax

; 422  :       for ( int index =0; index < size  &&  !isMultiLine; ++index )

	mov	DWORD PTR _index$56336[ebp], 0
	jmp	SHORT $LN3@isMultineA
$LN2@isMultineA:
	mov	ecx, DWORD PTR _index$56336[ebp]
	add	ecx, 1
	mov	DWORD PTR _index$56336[ebp], ecx
$LN3@isMultineA:
	mov	edx, DWORD PTR _index$56336[ebp]
	cmp	edx, DWORD PTR _size$[ebp]
	jge	SHORT $LN1@isMultineA
	movzx	eax, BYTE PTR _isMultiLine$[ebp]
	test	eax, eax
	jne	SHORT $LN1@isMultineA

; 423  :       {
; 424  :          writeValue( value[index] );

	mov	ecx, DWORD PTR _index$56336[ebp]
	push	ecx
	mov	ecx, DWORD PTR _value$[ebp]
	call	??AValue@Json@@QBEABV01@I@Z		; Json::Value::operator[]
	push	eax
	mov	ecx, DWORD PTR _this$[ebp]
	call	?writeValue@StyledWriter@Json@@AAEXABVValue@2@@Z ; Json::StyledWriter::writeValue

; 425  :          lineLength += int( childValues_[index].length() );

	mov	edx, DWORD PTR _index$56336[ebp]
	push	edx
	mov	ecx, DWORD PTR _this$[ebp]
	add	ecx, 4
	call	??A?$vector@V?$basic_string@DU?$char_traits@D@std@@V?$allocator@D@2@@std@@V?$allocator@V?$basic_string@DU?$char_traits@D@std@@V?$allocator@D@2@@std@@@2@@std@@QAEAAV?$basic_string@DU?$char_traits@D@std@@V?$allocator@D@2@@1@I@Z ; std::vector<std::basic_string<char,std::char_traits<char>,std::allocator<char> >,std::allocator<std::basic_string<char,std::char_traits<char>,std::allocator<char> > > >::operator[]
	mov	ecx, eax
	call	DWORD PTR __imp_?length@?$basic_string@DU?$char_traits@D@std@@V?$allocator@D@2@@std@@QBEIXZ
	add	eax, DWORD PTR _lineLength$56335[ebp]
	mov	DWORD PTR _lineLength$56335[ebp], eax

; 426  :          isMultiLine = isMultiLine  &&  hasCommentForValue( value[index] );

	movzx	eax, BYTE PTR _isMultiLine$[ebp]
	test	eax, eax
	je	SHORT $LN14@isMultineA
	mov	ecx, DWORD PTR _index$56336[ebp]
	push	ecx
	mov	ecx, DWORD PTR _value$[ebp]
	call	??AValue@Json@@QBEABV01@I@Z		; Json::Value::operator[]
	push	eax
	mov	ecx, DWORD PTR _this$[ebp]
	call	?hasCommentForValue@StyledWriter@Json@@AAE_NABVValue@2@@Z ; Json::StyledWriter::hasCommentForValue
	movzx	edx, al
	test	edx, edx
	je	SHORT $LN14@isMultineA
	mov	DWORD PTR tv162[ebp], 1
	jmp	SHORT $LN15@isMultineA
$LN14@isMultineA:
	mov	DWORD PTR tv162[ebp], 0
$LN15@isMultineA:
	mov	al, BYTE PTR tv162[ebp]
	mov	BYTE PTR _isMultiLine$[ebp], al

; 427  :       }

	jmp	$LN2@isMultineA
$LN1@isMultineA:

; 428  :       addChildValues_ = false;

	mov	ecx, DWORD PTR _this$[ebp]
	mov	BYTE PTR [ecx+92], 0

; 429  :       isMultiLine = isMultiLine  ||  lineLength >= rightMargin_;

	movzx	edx, BYTE PTR _isMultiLine$[ebp]
	test	edx, edx
	jne	SHORT $LN16@isMultineA
	mov	eax, DWORD PTR _this$[ebp]
	mov	ecx, DWORD PTR _lineLength$56335[ebp]
	cmp	ecx, DWORD PTR [eax+84]
	jge	SHORT $LN16@isMultineA
	mov	DWORD PTR tv169[ebp], 0
	jmp	SHORT $LN17@isMultineA
$LN16@isMultineA:
	mov	DWORD PTR tv169[ebp], 1
$LN17@isMultineA:
	mov	dl, BYTE PTR tv169[ebp]
	mov	BYTE PTR _isMultiLine$[ebp], dl
$LN4@isMultineA:

; 430  :    }
; 431  :    return isMultiLine;

	mov	al, BYTE PTR _isMultiLine$[ebp]

; 432  : }

	mov	esp, ebp
	pop	ebp
	ret	4
?isMultineArray@StyledWriter@Json@@AAE_NABVValue@2@@Z ENDP ; Json::StyledWriter::isMultineArray
_TEXT	ENDS
PUBLIC	?push_back@?$vector@V?$basic_string@DU?$char_traits@D@std@@V?$allocator@D@2@@std@@V?$allocator@V?$basic_string@DU?$char_traits@D@std@@V?$allocator@D@2@@std@@@2@@std@@QAEXABV?$basic_string@DU?$char_traits@D@std@@V?$allocator@D@2@@2@@Z ; std::vector<std::basic_string<char,std::char_traits<char>,std::allocator<char> >,std::allocator<std::basic_string<char,std::char_traits<char>,std::allocator<char> > > >::push_back
; Function compile flags: /Odtp
;	COMDAT ?pushValue@StyledWriter@Json@@AAEXABV?$basic_string@DU?$char_traits@D@std@@V?$allocator@D@2@@std@@@Z
_TEXT	SEGMENT
_this$ = -4						; size = 4
_value$ = 8						; size = 4
?pushValue@StyledWriter@Json@@AAEXABV?$basic_string@DU?$char_traits@D@std@@V?$allocator@D@2@@std@@@Z PROC ; Json::StyledWriter::pushValue, COMDAT
; _this$ = ecx

; 437  : {

	push	ebp
	mov	ebp, esp
	push	ecx
	mov	DWORD PTR _this$[ebp], ecx

; 438  :    if ( addChildValues_ )

	mov	eax, DWORD PTR _this$[ebp]
	movzx	ecx, BYTE PTR [eax+92]
	test	ecx, ecx
	je	SHORT $LN2@pushValue

; 439  :       childValues_.push_back( value );

	mov	edx, DWORD PTR _value$[ebp]
	push	edx
	mov	ecx, DWORD PTR _this$[ebp]
	add	ecx, 4
	call	?push_back@?$vector@V?$basic_string@DU?$char_traits@D@std@@V?$allocator@D@2@@std@@V?$allocator@V?$basic_string@DU?$char_traits@D@std@@V?$allocator@D@2@@std@@@2@@std@@QAEXABV?$basic_string@DU?$char_traits@D@std@@V?$allocator@D@2@@2@@Z ; std::vector<std::basic_string<char,std::char_traits<char>,std::allocator<char> >,std::allocator<std::basic_string<char,std::char_traits<char>,std::allocator<char> > > >::push_back

; 440  :    else

	jmp	SHORT $LN3@pushValue
$LN2@pushValue:

; 441  :       document_ += value;

	mov	eax, DWORD PTR _value$[ebp]
	push	eax
	mov	ecx, DWORD PTR _this$[ebp]
	add	ecx, 28					; 0000001cH
	call	DWORD PTR __imp_??Y?$basic_string@DU?$char_traits@D@std@@V?$allocator@D@2@@std@@QAEAAV01@ABV01@@Z
$LN3@pushValue:

; 442  : }

	mov	esp, ebp
	pop	ebp
	ret	4
?pushValue@StyledWriter@Json@@AAEXABV?$basic_string@DU?$char_traits@D@std@@V?$allocator@D@2@@std@@@Z ENDP ; Json::StyledWriter::pushValue
_TEXT	ENDS
EXTRN	__imp_??A?$basic_string@DU?$char_traits@D@std@@V?$allocator@D@2@@std@@QAEAADI@Z:PROC
EXTRN	__imp_?empty@?$basic_string@DU?$char_traits@D@std@@V?$allocator@D@2@@std@@QBE_NXZ:PROC
; Function compile flags: /Odtp
;	COMDAT ?writeIndent@StyledWriter@Json@@AAEXXZ
_TEXT	SEGMENT
_this$ = -8						; size = 4
_last$56350 = -1					; size = 1
?writeIndent@StyledWriter@Json@@AAEXXZ PROC		; Json::StyledWriter::writeIndent, COMDAT
; _this$ = ecx

; 447  : {

	push	ebp
	mov	ebp, esp
	sub	esp, 8
	mov	DWORD PTR _this$[ebp], ecx

; 448  :    if ( !document_.empty() )

	mov	ecx, DWORD PTR _this$[ebp]
	add	ecx, 28					; 0000001cH
	call	DWORD PTR __imp_?empty@?$basic_string@DU?$char_traits@D@std@@V?$allocator@D@2@@std@@QBE_NXZ
	movzx	eax, al
	test	eax, eax
	jne	SHORT $LN3@writeInden

; 449  :    {
; 450  :       char last = document_[document_.length()-1];

	mov	ecx, DWORD PTR _this$[ebp]
	add	ecx, 28					; 0000001cH
	call	DWORD PTR __imp_?length@?$basic_string@DU?$char_traits@D@std@@V?$allocator@D@2@@std@@QBEIXZ
	sub	eax, 1
	push	eax
	mov	ecx, DWORD PTR _this$[ebp]
	add	ecx, 28					; 0000001cH
	call	DWORD PTR __imp_??A?$basic_string@DU?$char_traits@D@std@@V?$allocator@D@2@@std@@QAEAADI@Z
	mov	cl, BYTE PTR [eax]
	mov	BYTE PTR _last$56350[ebp], cl

; 451  :       if ( last == ' ' )     // already indented

	movsx	edx, BYTE PTR _last$56350[ebp]
	cmp	edx, 32					; 00000020H
	jne	SHORT $LN2@writeInden

; 452  :          return;

	jmp	SHORT $LN4@writeInden
$LN2@writeInden:

; 453  :       if ( last != '\n' )    // Comments may add new-line

	movsx	eax, BYTE PTR _last$56350[ebp]
	cmp	eax, 10					; 0000000aH
	je	SHORT $LN3@writeInden

; 454  :          document_ += '\n';

	push	10					; 0000000aH
	mov	ecx, DWORD PTR _this$[ebp]
	add	ecx, 28					; 0000001cH
	call	DWORD PTR __imp_??Y?$basic_string@DU?$char_traits@D@std@@V?$allocator@D@2@@std@@QAEAAV01@D@Z
$LN3@writeInden:

; 455  :    }
; 456  :    document_ += indentString_;

	mov	ecx, DWORD PTR _this$[ebp]
	add	ecx, 56					; 00000038H
	push	ecx
	mov	ecx, DWORD PTR _this$[ebp]
	add	ecx, 28					; 0000001cH
	call	DWORD PTR __imp_??Y?$basic_string@DU?$char_traits@D@std@@V?$allocator@D@2@@std@@QAEAAV01@ABV01@@Z
$LN4@writeInden:

; 457  : }

	mov	esp, ebp
	pop	ebp
	ret	0
?writeIndent@StyledWriter@Json@@AAEXXZ ENDP		; Json::StyledWriter::writeIndent
; Function compile flags: /Odtp
_TEXT	ENDS
;	COMDAT ?writeWithIndent@StyledWriter@Json@@AAEXABV?$basic_string@DU?$char_traits@D@std@@V?$allocator@D@2@@std@@@Z
_TEXT	SEGMENT
_this$ = -4						; size = 4
_value$ = 8						; size = 4
?writeWithIndent@StyledWriter@Json@@AAEXABV?$basic_string@DU?$char_traits@D@std@@V?$allocator@D@2@@std@@@Z PROC ; Json::StyledWriter::writeWithIndent, COMDAT
; _this$ = ecx

; 462  : {

	push	ebp
	mov	ebp, esp
	push	ecx
	mov	DWORD PTR _this$[ebp], ecx

; 463  :    writeIndent();

	mov	ecx, DWORD PTR _this$[ebp]
	call	?writeIndent@StyledWriter@Json@@AAEXXZ	; Json::StyledWriter::writeIndent

; 464  :    document_ += value;

	mov	eax, DWORD PTR _value$[ebp]
	push	eax
	mov	ecx, DWORD PTR _this$[ebp]
	add	ecx, 28					; 0000001cH
	call	DWORD PTR __imp_??Y?$basic_string@DU?$char_traits@D@std@@V?$allocator@D@2@@std@@QAEAAV01@ABV01@@Z

; 465  : }

	mov	esp, ebp
	pop	ebp
	ret	4
?writeWithIndent@StyledWriter@Json@@AAEXABV?$basic_string@DU?$char_traits@D@std@@V?$allocator@D@2@@std@@@Z ENDP ; Json::StyledWriter::writeWithIndent
_TEXT	ENDS
EXTRN	__imp_??0?$basic_string@DU?$char_traits@D@std@@V?$allocator@D@2@@std@@QAE@ID@Z:PROC
;	COMDAT xdata$x
xdata$x	SEGMENT
__unwindtable$?indent@StyledWriter@Json@@AAEXXZ DD 0ffffffffH
	DD	FLAT:__unwindfunclet$?indent@StyledWriter@Json@@AAEXXZ$0
__ehfuncinfo$?indent@StyledWriter@Json@@AAEXXZ DD 019930522H
	DD	01H
	DD	FLAT:__unwindtable$?indent@StyledWriter@Json@@AAEXXZ
	DD	2 DUP(00H)
	DD	2 DUP(00H)
	DD	00H
	DD	01H
; Function compile flags: /Odtp
xdata$x	ENDS
;	COMDAT ?indent@StyledWriter@Json@@AAEXXZ
_TEXT	SEGMENT
tv75 = -52						; size = 4
tv76 = -48						; size = 4
_this$ = -44						; size = 4
$T63145 = -40						; size = 28
__$EHRec$ = -12						; size = 12
?indent@StyledWriter@Json@@AAEXXZ PROC			; Json::StyledWriter::indent, COMDAT
; _this$ = ecx

; 470  : {

	push	ebp
	mov	ebp, esp
	push	-1
	push	__ehhandler$?indent@StyledWriter@Json@@AAEXXZ
	mov	eax, DWORD PTR fs:0
	push	eax
	sub	esp, 40					; 00000028H
	mov	eax, DWORD PTR ___security_cookie
	xor	eax, ebp
	push	eax
	lea	eax, DWORD PTR __$EHRec$[ebp]
	mov	DWORD PTR fs:0, eax
	mov	DWORD PTR _this$[ebp], ecx

; 471  :    indentString_ += std::string( indentSize_, ' ' );

	push	32					; 00000020H
	mov	eax, DWORD PTR _this$[ebp]
	mov	ecx, DWORD PTR [eax+88]
	push	ecx
	lea	ecx, DWORD PTR $T63145[ebp]
	call	DWORD PTR __imp_??0?$basic_string@DU?$char_traits@D@std@@V?$allocator@D@2@@std@@QAE@ID@Z
	mov	DWORD PTR tv76[ebp], eax
	mov	edx, DWORD PTR tv76[ebp]
	mov	DWORD PTR tv75[ebp], edx
	mov	DWORD PTR __$EHRec$[ebp+8], 0
	mov	eax, DWORD PTR tv75[ebp]
	push	eax
	mov	ecx, DWORD PTR _this$[ebp]
	add	ecx, 56					; 00000038H
	call	DWORD PTR __imp_??Y?$basic_string@DU?$char_traits@D@std@@V?$allocator@D@2@@std@@QAEAAV01@ABV01@@Z
	mov	DWORD PTR __$EHRec$[ebp+8], -1
	lea	ecx, DWORD PTR $T63145[ebp]
	call	DWORD PTR __imp_??1?$basic_string@DU?$char_traits@D@std@@V?$allocator@D@2@@std@@QAE@XZ

; 472  : }

	mov	ecx, DWORD PTR __$EHRec$[ebp]
	mov	DWORD PTR fs:0, ecx
	pop	ecx
	mov	esp, ebp
	pop	ebp
	ret	0
_TEXT	ENDS
;	COMDAT text$x
text$x	SEGMENT
__unwindfunclet$?indent@StyledWriter@Json@@AAEXXZ$0:
	lea	ecx, DWORD PTR $T63145[ebp]
	jmp	DWORD PTR __imp_??1?$basic_string@DU?$char_traits@D@std@@V?$allocator@D@2@@std@@QAE@XZ
__ehhandler$?indent@StyledWriter@Json@@AAEXXZ:
	mov	edx, DWORD PTR [esp+8]
	lea	eax, DWORD PTR [edx+12]
	mov	ecx, DWORD PTR [edx-44]
	xor	ecx, eax
	call	@__security_check_cookie@4
	mov	eax, OFFSET __ehfuncinfo$?indent@StyledWriter@Json@@AAEXXZ
	jmp	___CxxFrameHandler3
text$x	ENDS
?indent@StyledWriter@Json@@AAEXXZ ENDP			; Json::StyledWriter::indent
EXTRN	__imp_?resize@?$basic_string@DU?$char_traits@D@std@@V?$allocator@D@2@@std@@QAEXI@Z:PROC
EXTRN	__imp_?size@?$basic_string@DU?$char_traits@D@std@@V?$allocator@D@2@@std@@QBEIXZ:PROC
; Function compile flags: /Odtp
;	COMDAT ?unindent@StyledWriter@Json@@AAEXXZ
_TEXT	SEGMENT
_this$ = -4						; size = 4
?unindent@StyledWriter@Json@@AAEXXZ PROC		; Json::StyledWriter::unindent, COMDAT
; _this$ = ecx

; 477  : {

	push	ebp
	mov	ebp, esp
	push	ecx
	mov	DWORD PTR _this$[ebp], ecx

; 478  :    assert( int(indentString_.size()) >= indentSize_ );
; 479  :    indentString_.resize( indentString_.size() - indentSize_ );

	mov	ecx, DWORD PTR _this$[ebp]
	add	ecx, 56					; 00000038H
	call	DWORD PTR __imp_?size@?$basic_string@DU?$char_traits@D@std@@V?$allocator@D@2@@std@@QBEIXZ
	mov	ecx, DWORD PTR _this$[ebp]
	sub	eax, DWORD PTR [ecx+88]
	push	eax
	mov	ecx, DWORD PTR _this$[ebp]
	add	ecx, 56					; 00000038H
	call	DWORD PTR __imp_?resize@?$basic_string@DU?$char_traits@D@std@@V?$allocator@D@2@@std@@QAEXI@Z

; 480  : }

	mov	esp, ebp
	pop	ebp
	ret	0
?unindent@StyledWriter@Json@@AAEXXZ ENDP		; Json::StyledWriter::unindent
_TEXT	ENDS
PUBLIC	?normalizeEOL@StyledWriter@Json@@CA?AV?$basic_string@DU?$char_traits@D@std@@V?$allocator@D@2@@std@@ABV34@@Z ; Json::StyledWriter::normalizeEOL
EXTRN	?getComment@Value@Json@@QBE?AV?$basic_string@DU?$char_traits@D@std@@V?$allocator@D@2@@std@@W4CommentPlacement@2@@Z:PROC ; Json::Value::getComment
EXTRN	?hasComment@Value@Json@@QBE_NW4CommentPlacement@2@@Z:PROC ; Json::Value::hasComment
;	COMDAT xdata$x
xdata$x	SEGMENT
__unwindtable$?writeCommentBeforeValue@StyledWriter@Json@@AAEXABVValue@2@@Z DD 0ffffffffH
	DD	FLAT:__unwindfunclet$?writeCommentBeforeValue@StyledWriter@Json@@AAEXABVValue@2@@Z$0
	DD	00H
	DD	FLAT:__unwindfunclet$?writeCommentBeforeValue@StyledWriter@Json@@AAEXABVValue@2@@Z$1
__ehfuncinfo$?writeCommentBeforeValue@StyledWriter@Json@@AAEXABVValue@2@@Z DD 019930522H
	DD	02H
	DD	FLAT:__unwindtable$?writeCommentBeforeValue@StyledWriter@Json@@AAEXABVValue@2@@Z
	DD	2 DUP(00H)
	DD	2 DUP(00H)
	DD	00H
	DD	01H
; Function compile flags: /Odtp
xdata$x	ENDS
;	COMDAT ?writeCommentBeforeValue@StyledWriter@Json@@AAEXABVValue@2@@Z
_TEXT	SEGMENT
tv89 = -88						; size = 4
tv91 = -84						; size = 4
tv87 = -80						; size = 4
tv90 = -76						; size = 4
_this$ = -72						; size = 4
$T63158 = -68						; size = 28
$T63157 = -40						; size = 28
__$EHRec$ = -12						; size = 12
_root$ = 8						; size = 4
?writeCommentBeforeValue@StyledWriter@Json@@AAEXABVValue@2@@Z PROC ; Json::StyledWriter::writeCommentBeforeValue, COMDAT
; _this$ = ecx

; 485  : {

	push	ebp
	mov	ebp, esp
	push	-1
	push	__ehhandler$?writeCommentBeforeValue@StyledWriter@Json@@AAEXABVValue@2@@Z
	mov	eax, DWORD PTR fs:0
	push	eax
	sub	esp, 76					; 0000004cH
	mov	eax, DWORD PTR ___security_cookie
	xor	eax, ebp
	push	eax
	lea	eax, DWORD PTR __$EHRec$[ebp]
	mov	DWORD PTR fs:0, eax
	mov	DWORD PTR _this$[ebp], ecx

; 486  :    if ( !root.hasComment( commentBefore ) )

	push	0
	mov	ecx, DWORD PTR _root$[ebp]
	call	?hasComment@Value@Json@@QBE_NW4CommentPlacement@2@@Z ; Json::Value::hasComment
	movzx	eax, al
	test	eax, eax
	jne	SHORT $LN1@writeComme

; 487  :       return;

	jmp	SHORT $LN2@writeComme
$LN1@writeComme:

; 488  :    document_ += normalizeEOL( root.getComment( commentBefore ) );

	push	0
	lea	ecx, DWORD PTR $T63157[ebp]
	push	ecx
	mov	ecx, DWORD PTR _root$[ebp]
	call	?getComment@Value@Json@@QBE?AV?$basic_string@DU?$char_traits@D@std@@V?$allocator@D@2@@std@@W4CommentPlacement@2@@Z ; Json::Value::getComment
	mov	DWORD PTR tv90[ebp], eax
	mov	edx, DWORD PTR tv90[ebp]
	mov	DWORD PTR tv87[ebp], edx
	mov	DWORD PTR __$EHRec$[ebp+8], 0
	mov	eax, DWORD PTR tv87[ebp]
	push	eax
	lea	ecx, DWORD PTR $T63158[ebp]
	push	ecx
	call	?normalizeEOL@StyledWriter@Json@@CA?AV?$basic_string@DU?$char_traits@D@std@@V?$allocator@D@2@@std@@ABV34@@Z ; Json::StyledWriter::normalizeEOL
	add	esp, 8
	mov	DWORD PTR tv91[ebp], eax
	mov	edx, DWORD PTR tv91[ebp]
	mov	DWORD PTR tv89[ebp], edx
	mov	BYTE PTR __$EHRec$[ebp+8], 1
	mov	eax, DWORD PTR tv89[ebp]
	push	eax
	mov	ecx, DWORD PTR _this$[ebp]
	add	ecx, 28					; 0000001cH
	call	DWORD PTR __imp_??Y?$basic_string@DU?$char_traits@D@std@@V?$allocator@D@2@@std@@QAEAAV01@ABV01@@Z
	mov	BYTE PTR __$EHRec$[ebp+8], 0
	lea	ecx, DWORD PTR $T63158[ebp]
	call	DWORD PTR __imp_??1?$basic_string@DU?$char_traits@D@std@@V?$allocator@D@2@@std@@QAE@XZ
	mov	DWORD PTR __$EHRec$[ebp+8], -1
	lea	ecx, DWORD PTR $T63157[ebp]
	call	DWORD PTR __imp_??1?$basic_string@DU?$char_traits@D@std@@V?$allocator@D@2@@std@@QAE@XZ

; 489  :    document_ += "\n";

	push	OFFSET ??_C@_01EEMJAFIK@?6?$AA@
	mov	ecx, DWORD PTR _this$[ebp]
	add	ecx, 28					; 0000001cH
	call	DWORD PTR __imp_??Y?$basic_string@DU?$char_traits@D@std@@V?$allocator@D@2@@std@@QAEAAV01@PBD@Z
$LN2@writeComme:

; 490  : }

	mov	ecx, DWORD PTR __$EHRec$[ebp]
	mov	DWORD PTR fs:0, ecx
	pop	ecx
	mov	esp, ebp
	pop	ebp
	ret	4
_TEXT	ENDS
;	COMDAT text$x
text$x	SEGMENT
__unwindfunclet$?writeCommentBeforeValue@StyledWriter@Json@@AAEXABVValue@2@@Z$0:
	lea	ecx, DWORD PTR $T63157[ebp]
	jmp	DWORD PTR __imp_??1?$basic_string@DU?$char_traits@D@std@@V?$allocator@D@2@@std@@QAE@XZ
__unwindfunclet$?writeCommentBeforeValue@StyledWriter@Json@@AAEXABVValue@2@@Z$1:
	lea	ecx, DWORD PTR $T63158[ebp]
	jmp	DWORD PTR __imp_??1?$basic_string@DU?$char_traits@D@std@@V?$allocator@D@2@@std@@QAE@XZ
__ehhandler$?writeCommentBeforeValue@StyledWriter@Json@@AAEXABVValue@2@@Z:
	mov	edx, DWORD PTR [esp+8]
	lea	eax, DWORD PTR [edx+12]
	mov	ecx, DWORD PTR [edx-80]
	xor	ecx, eax
	call	@__security_check_cookie@4
	mov	eax, OFFSET __ehfuncinfo$?writeCommentBeforeValue@StyledWriter@Json@@AAEXABVValue@2@@Z
	jmp	___CxxFrameHandler3
text$x	ENDS
?writeCommentBeforeValue@StyledWriter@Json@@AAEXABVValue@2@@Z ENDP ; Json::StyledWriter::writeCommentBeforeValue
PUBLIC	??_C@_01CLKCMJKC@?5?$AA@			; `string'
EXTRN	__imp_??$?HDU?$char_traits@D@std@@V?$allocator@D@1@@std@@YA?AV?$basic_string@DU?$char_traits@D@std@@V?$allocator@D@2@@0@PBDABV10@@Z:PROC
;	COMDAT ??_C@_01CLKCMJKC@?5?$AA@
CONST	SEGMENT
??_C@_01CLKCMJKC@?5?$AA@ DB ' ', 00H			; `string'
CONST	ENDS
;	COMDAT xdata$x
xdata$x	SEGMENT
__ehfuncinfo$?writeCommentAfterValueOnSameLine@StyledWriter@Json@@AAEXABVValue@2@@Z DD 019930522H
	DD	05H
	DD	FLAT:__unwindtable$?writeCommentAfterValueOnSameLine@StyledWriter@Json@@AAEXABVValue@2@@Z
	DD	2 DUP(00H)
	DD	2 DUP(00H)
	DD	00H
	DD	01H
__unwindtable$?writeCommentAfterValueOnSameLine@StyledWriter@Json@@AAEXABVValue@2@@Z DD 0ffffffffH
	DD	FLAT:__unwindfunclet$?writeCommentAfterValueOnSameLine@StyledWriter@Json@@AAEXABVValue@2@@Z$0
	DD	00H
	DD	FLAT:__unwindfunclet$?writeCommentAfterValueOnSameLine@StyledWriter@Json@@AAEXABVValue@2@@Z$1
	DD	01H
	DD	FLAT:__unwindfunclet$?writeCommentAfterValueOnSameLine@StyledWriter@Json@@AAEXABVValue@2@@Z$2
	DD	0ffffffffH
	DD	FLAT:__unwindfunclet$?writeCommentAfterValueOnSameLine@StyledWriter@Json@@AAEXABVValue@2@@Z$3
	DD	03H
	DD	FLAT:__unwindfunclet$?writeCommentAfterValueOnSameLine@StyledWriter@Json@@AAEXABVValue@2@@Z$4
; Function compile flags: /Odtp
xdata$x	ENDS
;	COMDAT ?writeCommentAfterValueOnSameLine@StyledWriter@Json@@AAEXABVValue@2@@Z
_TEXT	SEGMENT
tv155 = -196						; size = 4
tv160 = -192						; size = 4
tv153 = -188						; size = 4
tv159 = -184						; size = 4
tv151 = -180						; size = 4
tv158 = -176						; size = 4
tv149 = -172						; size = 4
tv157 = -168						; size = 4
tv147 = -164						; size = 4
tv156 = -160						; size = 4
_this$ = -156						; size = 4
$T63173 = -152						; size = 28
$T63172 = -124						; size = 28
$T63171 = -96						; size = 28
$T63170 = -68						; size = 28
$T63169 = -40						; size = 28
__$EHRec$ = -12						; size = 12
_root$ = 8						; size = 4
?writeCommentAfterValueOnSameLine@StyledWriter@Json@@AAEXABVValue@2@@Z PROC ; Json::StyledWriter::writeCommentAfterValueOnSameLine, COMDAT
; _this$ = ecx

; 495  : {

	push	ebp
	mov	ebp, esp
	push	-1
	push	__ehhandler$?writeCommentAfterValueOnSameLine@StyledWriter@Json@@AAEXABVValue@2@@Z
	mov	eax, DWORD PTR fs:0
	push	eax
	sub	esp, 184				; 000000b8H
	mov	eax, DWORD PTR ___security_cookie
	xor	eax, ebp
	push	eax
	lea	eax, DWORD PTR __$EHRec$[ebp]
	mov	DWORD PTR fs:0, eax
	mov	DWORD PTR _this$[ebp], ecx

; 496  :    if ( root.hasComment( commentAfterOnSameLine ) )

	push	1
	mov	ecx, DWORD PTR _root$[ebp]
	call	?hasComment@Value@Json@@QBE_NW4CommentPlacement@2@@Z ; Json::Value::hasComment
	movzx	eax, al
	test	eax, eax
	je	$LN2@writeComme@2

; 497  :       document_ += " " + normalizeEOL( root.getComment( commentAfterOnSameLine ) );

	push	1
	lea	ecx, DWORD PTR $T63169[ebp]
	push	ecx
	mov	ecx, DWORD PTR _root$[ebp]
	call	?getComment@Value@Json@@QBE?AV?$basic_string@DU?$char_traits@D@std@@V?$allocator@D@2@@std@@W4CommentPlacement@2@@Z ; Json::Value::getComment
	mov	DWORD PTR tv156[ebp], eax
	mov	edx, DWORD PTR tv156[ebp]
	mov	DWORD PTR tv147[ebp], edx
	mov	DWORD PTR __$EHRec$[ebp+8], 0
	mov	eax, DWORD PTR tv147[ebp]
	push	eax
	lea	ecx, DWORD PTR $T63170[ebp]
	push	ecx
	call	?normalizeEOL@StyledWriter@Json@@CA?AV?$basic_string@DU?$char_traits@D@std@@V?$allocator@D@2@@std@@ABV34@@Z ; Json::StyledWriter::normalizeEOL
	add	esp, 8
	mov	DWORD PTR tv157[ebp], eax
	mov	edx, DWORD PTR tv157[ebp]
	mov	DWORD PTR tv149[ebp], edx
	mov	BYTE PTR __$EHRec$[ebp+8], 1
	mov	eax, DWORD PTR tv149[ebp]
	push	eax
	push	OFFSET ??_C@_01CLKCMJKC@?5?$AA@
	lea	ecx, DWORD PTR $T63171[ebp]
	push	ecx
	call	DWORD PTR __imp_??$?HDU?$char_traits@D@std@@V?$allocator@D@1@@std@@YA?AV?$basic_string@DU?$char_traits@D@std@@V?$allocator@D@2@@0@PBDABV10@@Z
	add	esp, 12					; 0000000cH
	mov	DWORD PTR tv158[ebp], eax
	mov	edx, DWORD PTR tv158[ebp]
	mov	DWORD PTR tv151[ebp], edx
	mov	BYTE PTR __$EHRec$[ebp+8], 2
	mov	eax, DWORD PTR tv151[ebp]
	push	eax
	mov	ecx, DWORD PTR _this$[ebp]
	add	ecx, 28					; 0000001cH
	call	DWORD PTR __imp_??Y?$basic_string@DU?$char_traits@D@std@@V?$allocator@D@2@@std@@QAEAAV01@ABV01@@Z
	mov	BYTE PTR __$EHRec$[ebp+8], 1
	lea	ecx, DWORD PTR $T63171[ebp]
	call	DWORD PTR __imp_??1?$basic_string@DU?$char_traits@D@std@@V?$allocator@D@2@@std@@QAE@XZ
	mov	BYTE PTR __$EHRec$[ebp+8], 0
	lea	ecx, DWORD PTR $T63170[ebp]
	call	DWORD PTR __imp_??1?$basic_string@DU?$char_traits@D@std@@V?$allocator@D@2@@std@@QAE@XZ
	mov	DWORD PTR __$EHRec$[ebp+8], -1
	lea	ecx, DWORD PTR $T63169[ebp]
	call	DWORD PTR __imp_??1?$basic_string@DU?$char_traits@D@std@@V?$allocator@D@2@@std@@QAE@XZ
$LN2@writeComme@2:

; 498  : 
; 499  :    if ( root.hasComment( commentAfter ) )

	push	2
	mov	ecx, DWORD PTR _root$[ebp]
	call	?hasComment@Value@Json@@QBE_NW4CommentPlacement@2@@Z ; Json::Value::hasComment
	movzx	ecx, al
	test	ecx, ecx
	je	$LN3@writeComme@2

; 500  :    {
; 501  :       document_ += "\n";

	push	OFFSET ??_C@_01EEMJAFIK@?6?$AA@
	mov	ecx, DWORD PTR _this$[ebp]
	add	ecx, 28					; 0000001cH
	call	DWORD PTR __imp_??Y?$basic_string@DU?$char_traits@D@std@@V?$allocator@D@2@@std@@QAEAAV01@PBD@Z

; 502  :       document_ += normalizeEOL( root.getComment( commentAfter ) );

	push	2
	lea	edx, DWORD PTR $T63172[ebp]
	push	edx
	mov	ecx, DWORD PTR _root$[ebp]
	call	?getComment@Value@Json@@QBE?AV?$basic_string@DU?$char_traits@D@std@@V?$allocator@D@2@@std@@W4CommentPlacement@2@@Z ; Json::Value::getComment
	mov	DWORD PTR tv159[ebp], eax
	mov	eax, DWORD PTR tv159[ebp]
	mov	DWORD PTR tv153[ebp], eax
	mov	DWORD PTR __$EHRec$[ebp+8], 3
	mov	ecx, DWORD PTR tv153[ebp]
	push	ecx
	lea	edx, DWORD PTR $T63173[ebp]
	push	edx
	call	?normalizeEOL@StyledWriter@Json@@CA?AV?$basic_string@DU?$char_traits@D@std@@V?$allocator@D@2@@std@@ABV34@@Z ; Json::StyledWriter::normalizeEOL
	add	esp, 8
	mov	DWORD PTR tv160[ebp], eax
	mov	eax, DWORD PTR tv160[ebp]
	mov	DWORD PTR tv155[ebp], eax
	mov	BYTE PTR __$EHRec$[ebp+8], 4
	mov	ecx, DWORD PTR tv155[ebp]
	push	ecx
	mov	ecx, DWORD PTR _this$[ebp]
	add	ecx, 28					; 0000001cH
	call	DWORD PTR __imp_??Y?$basic_string@DU?$char_traits@D@std@@V?$allocator@D@2@@std@@QAEAAV01@ABV01@@Z
	mov	BYTE PTR __$EHRec$[ebp+8], 3
	lea	ecx, DWORD PTR $T63173[ebp]
	call	DWORD PTR __imp_??1?$basic_string@DU?$char_traits@D@std@@V?$allocator@D@2@@std@@QAE@XZ
	mov	DWORD PTR __$EHRec$[ebp+8], -1
	lea	ecx, DWORD PTR $T63172[ebp]
	call	DWORD PTR __imp_??1?$basic_string@DU?$char_traits@D@std@@V?$allocator@D@2@@std@@QAE@XZ

; 503  :       document_ += "\n";

	push	OFFSET ??_C@_01EEMJAFIK@?6?$AA@
	mov	ecx, DWORD PTR _this$[ebp]
	add	ecx, 28					; 0000001cH
	call	DWORD PTR __imp_??Y?$basic_string@DU?$char_traits@D@std@@V?$allocator@D@2@@std@@QAEAAV01@PBD@Z
$LN3@writeComme@2:

; 504  :    }
; 505  : }

	mov	ecx, DWORD PTR __$EHRec$[ebp]
	mov	DWORD PTR fs:0, ecx
	pop	ecx
	mov	esp, ebp
	pop	ebp
	ret	4
_TEXT	ENDS
;	COMDAT text$x
text$x	SEGMENT
__unwindfunclet$?writeCommentAfterValueOnSameLine@StyledWriter@Json@@AAEXABVValue@2@@Z$0:
	lea	ecx, DWORD PTR $T63169[ebp]
	jmp	DWORD PTR __imp_??1?$basic_string@DU?$char_traits@D@std@@V?$allocator@D@2@@std@@QAE@XZ
__unwindfunclet$?writeCommentAfterValueOnSameLine@StyledWriter@Json@@AAEXABVValue@2@@Z$1:
	lea	ecx, DWORD PTR $T63170[ebp]
	jmp	DWORD PTR __imp_??1?$basic_string@DU?$char_traits@D@std@@V?$allocator@D@2@@std@@QAE@XZ
__unwindfunclet$?writeCommentAfterValueOnSameLine@StyledWriter@Json@@AAEXABVValue@2@@Z$2:
	lea	ecx, DWORD PTR $T63171[ebp]
	jmp	DWORD PTR __imp_??1?$basic_string@DU?$char_traits@D@std@@V?$allocator@D@2@@std@@QAE@XZ
__unwindfunclet$?writeCommentAfterValueOnSameLine@StyledWriter@Json@@AAEXABVValue@2@@Z$3:
	lea	ecx, DWORD PTR $T63172[ebp]
	jmp	DWORD PTR __imp_??1?$basic_string@DU?$char_traits@D@std@@V?$allocator@D@2@@std@@QAE@XZ
__unwindfunclet$?writeCommentAfterValueOnSameLine@StyledWriter@Json@@AAEXABVValue@2@@Z$4:
	lea	ecx, DWORD PTR $T63173[ebp]
	jmp	DWORD PTR __imp_??1?$basic_string@DU?$char_traits@D@std@@V?$allocator@D@2@@std@@QAE@XZ
__ehhandler$?writeCommentAfterValueOnSameLine@StyledWriter@Json@@AAEXABVValue@2@@Z:
	mov	edx, DWORD PTR [esp+8]
	lea	eax, DWORD PTR [edx+12]
	mov	ecx, DWORD PTR [edx-188]
	xor	ecx, eax
	call	@__security_check_cookie@4
	mov	eax, OFFSET __ehfuncinfo$?writeCommentAfterValueOnSameLine@StyledWriter@Json@@AAEXABVValue@2@@Z
	jmp	___CxxFrameHandler3
text$x	ENDS
?writeCommentAfterValueOnSameLine@StyledWriter@Json@@AAEXABVValue@2@@Z ENDP ; Json::StyledWriter::writeCommentAfterValueOnSameLine
; Function compile flags: /Odtp
;	COMDAT ?hasCommentForValue@StyledWriter@Json@@AAE_NABVValue@2@@Z
_TEXT	SEGMENT
tv79 = -8						; size = 4
_this$ = -4						; size = 4
_value$ = 8						; size = 4
?hasCommentForValue@StyledWriter@Json@@AAE_NABVValue@2@@Z PROC ; Json::StyledWriter::hasCommentForValue, COMDAT
; _this$ = ecx

; 510  : {

	push	ebp
	mov	ebp, esp
	sub	esp, 8
	mov	DWORD PTR _this$[ebp], ecx

; 511  :    return value.hasComment( commentBefore )
; 512  :           ||  value.hasComment( commentAfterOnSameLine )
; 513  :           ||  value.hasComment( commentAfter );

	push	0
	mov	ecx, DWORD PTR _value$[ebp]
	call	?hasComment@Value@Json@@QBE_NW4CommentPlacement@2@@Z ; Json::Value::hasComment
	movzx	eax, al
	test	eax, eax
	jne	SHORT $LN3@hasComment
	push	1
	mov	ecx, DWORD PTR _value$[ebp]
	call	?hasComment@Value@Json@@QBE_NW4CommentPlacement@2@@Z ; Json::Value::hasComment
	movzx	ecx, al
	test	ecx, ecx
	jne	SHORT $LN3@hasComment
	push	2
	mov	ecx, DWORD PTR _value$[ebp]
	call	?hasComment@Value@Json@@QBE_NW4CommentPlacement@2@@Z ; Json::Value::hasComment
	movzx	edx, al
	test	edx, edx
	jne	SHORT $LN3@hasComment
	mov	DWORD PTR tv79[ebp], 0
	jmp	SHORT $LN4@hasComment
$LN3@hasComment:
	mov	DWORD PTR tv79[ebp], 1
$LN4@hasComment:
	mov	al, BYTE PTR tv79[ebp]

; 514  : }

	mov	esp, ebp
	pop	ebp
	ret	4
?hasCommentForValue@StyledWriter@Json@@AAE_NABVValue@2@@Z ENDP ; Json::StyledWriter::hasCommentForValue
_TEXT	ENDS
PUBLIC	__$ArrayPad$
;	COMDAT xdata$x
xdata$x	SEGMENT
__unwindtable$?normalizeEOL@StyledWriter@Json@@CA?AV?$basic_string@DU?$char_traits@D@std@@V?$allocator@D@2@@std@@ABV34@@Z DD 0ffffffffH
	DD	FLAT:__unwindfunclet$?normalizeEOL@StyledWriter@Json@@CA?AV?$basic_string@DU?$char_traits@D@std@@V?$allocator@D@2@@std@@ABV34@@Z$1
	DD	00H
	DD	FLAT:__unwindfunclet$?normalizeEOL@StyledWriter@Json@@CA?AV?$basic_string@DU?$char_traits@D@std@@V?$allocator@D@2@@std@@ABV34@@Z$0
__ehfuncinfo$?normalizeEOL@StyledWriter@Json@@CA?AV?$basic_string@DU?$char_traits@D@std@@V?$allocator@D@2@@std@@ABV34@@Z DD 019930522H
	DD	02H
	DD	FLAT:__unwindtable$?normalizeEOL@StyledWriter@Json@@CA?AV?$basic_string@DU?$char_traits@D@std@@V?$allocator@D@2@@std@@ABV34@@Z
	DD	2 DUP(00H)
	DD	2 DUP(00H)
	DD	00H
	DD	01H
; Function compile flags: /Odtp
xdata$x	ENDS
;	COMDAT ?normalizeEOL@StyledWriter@Json@@CA?AV?$basic_string@DU?$char_traits@D@std@@V?$allocator@D@2@@std@@ABV34@@Z
_TEXT	SEGMENT
$T63194 = -64						; size = 4
_c$56489 = -57						; size = 1
_normalized$ = -56					; size = 28
__$ArrayPad$ = -28					; size = 4
_end$ = -24						; size = 4
_begin$ = -20						; size = 4
_current$ = -16						; size = 4
__$EHRec$ = -12						; size = 12
___$ReturnUdt$ = 8					; size = 4
_text$ = 12						; size = 4
?normalizeEOL@StyledWriter@Json@@CA?AV?$basic_string@DU?$char_traits@D@std@@V?$allocator@D@2@@std@@ABV34@@Z PROC ; Json::StyledWriter::normalizeEOL, COMDAT

; 519  : {

	push	ebp
	mov	ebp, esp
	push	-1
	push	__ehhandler$?normalizeEOL@StyledWriter@Json@@CA?AV?$basic_string@DU?$char_traits@D@std@@V?$allocator@D@2@@std@@ABV34@@Z
	mov	eax, DWORD PTR fs:0
	push	eax
	sub	esp, 52					; 00000034H
	mov	eax, DWORD PTR ___security_cookie
	xor	eax, ebp
	mov	DWORD PTR __$ArrayPad$[ebp], eax
	push	eax
	lea	eax, DWORD PTR __$EHRec$[ebp]
	mov	DWORD PTR fs:0, eax
	mov	DWORD PTR $T63194[ebp], 0

; 520  :    std::string normalized;

	lea	ecx, DWORD PTR _normalized$[ebp]
	call	DWORD PTR __imp_??0?$basic_string@DU?$char_traits@D@std@@V?$allocator@D@2@@std@@QAE@XZ
	mov	DWORD PTR __$EHRec$[ebp+8], 1

; 521  :    normalized.reserve( text.length() );

	mov	ecx, DWORD PTR _text$[ebp]
	call	DWORD PTR __imp_?length@?$basic_string@DU?$char_traits@D@std@@V?$allocator@D@2@@std@@QBEIXZ
	push	eax
	lea	ecx, DWORD PTR _normalized$[ebp]
	call	DWORD PTR __imp_?reserve@?$basic_string@DU?$char_traits@D@std@@V?$allocator@D@2@@std@@QAEXI@Z

; 522  :    const char *begin = text.c_str();

	mov	ecx, DWORD PTR _text$[ebp]
	call	DWORD PTR __imp_?c_str@?$basic_string@DU?$char_traits@D@std@@V?$allocator@D@2@@std@@QBEPBDXZ
	mov	DWORD PTR _begin$[ebp], eax

; 523  :    const char *end = begin + text.length();

	mov	ecx, DWORD PTR _text$[ebp]
	call	DWORD PTR __imp_?length@?$basic_string@DU?$char_traits@D@std@@V?$allocator@D@2@@std@@QBEIXZ
	add	eax, DWORD PTR _begin$[ebp]
	mov	DWORD PTR _end$[ebp], eax

; 524  :    const char *current = begin;

	mov	eax, DWORD PTR _begin$[ebp]
	mov	DWORD PTR _current$[ebp], eax
$LN5@normalizeE:

; 525  :    while ( current != end )

	mov	ecx, DWORD PTR _current$[ebp]
	cmp	ecx, DWORD PTR _end$[ebp]
	je	SHORT $LN4@normalizeE

; 526  :    {
; 527  :       char c = *current++;

	mov	edx, DWORD PTR _current$[ebp]
	mov	al, BYTE PTR [edx]
	mov	BYTE PTR _c$56489[ebp], al
	mov	ecx, DWORD PTR _current$[ebp]
	add	ecx, 1
	mov	DWORD PTR _current$[ebp], ecx

; 528  :       if ( c == '\r' ) // mac or dos EOL

	movsx	edx, BYTE PTR _c$56489[ebp]
	cmp	edx, 13					; 0000000dH
	jne	SHORT $LN3@normalizeE

; 529  :       {
; 530  :          if ( *current == '\n' ) // convert dos EOL

	mov	eax, DWORD PTR _current$[ebp]
	movsx	ecx, BYTE PTR [eax]
	cmp	ecx, 10					; 0000000aH
	jne	SHORT $LN2@normalizeE

; 531  :             ++current;

	mov	edx, DWORD PTR _current$[ebp]
	add	edx, 1
	mov	DWORD PTR _current$[ebp], edx
$LN2@normalizeE:

; 532  :          normalized += '\n';

	push	10					; 0000000aH
	lea	ecx, DWORD PTR _normalized$[ebp]
	call	DWORD PTR __imp_??Y?$basic_string@DU?$char_traits@D@std@@V?$allocator@D@2@@std@@QAEAAV01@D@Z

; 533  :       }
; 534  :       else // handle unix EOL & other char

	jmp	SHORT $LN1@normalizeE
$LN3@normalizeE:

; 535  :          normalized += c;

	movzx	eax, BYTE PTR _c$56489[ebp]
	push	eax
	lea	ecx, DWORD PTR _normalized$[ebp]
	call	DWORD PTR __imp_??Y?$basic_string@DU?$char_traits@D@std@@V?$allocator@D@2@@std@@QAEAAV01@D@Z
$LN1@normalizeE:

; 536  :    }

	jmp	SHORT $LN5@normalizeE
$LN4@normalizeE:

; 537  :    return normalized;

	lea	ecx, DWORD PTR _normalized$[ebp]
	push	ecx
	mov	ecx, DWORD PTR ___$ReturnUdt$[ebp]
	call	DWORD PTR __imp_??0?$basic_string@DU?$char_traits@D@std@@V?$allocator@D@2@@std@@QAE@ABV01@@Z
	mov	edx, DWORD PTR $T63194[ebp]
	or	edx, 1
	mov	DWORD PTR $T63194[ebp], edx
	mov	BYTE PTR __$EHRec$[ebp+8], 0
	lea	ecx, DWORD PTR _normalized$[ebp]
	call	DWORD PTR __imp_??1?$basic_string@DU?$char_traits@D@std@@V?$allocator@D@2@@std@@QAE@XZ
	mov	eax, DWORD PTR ___$ReturnUdt$[ebp]

; 538  : }

	mov	ecx, DWORD PTR __$EHRec$[ebp]
	mov	DWORD PTR fs:0, ecx
	pop	ecx
	mov	ecx, DWORD PTR __$ArrayPad$[ebp]
	xor	ecx, ebp
	call	@__security_check_cookie@4
	mov	esp, ebp
	pop	ebp
	ret	0
_TEXT	ENDS
;	COMDAT text$x
text$x	SEGMENT
__unwindfunclet$?normalizeEOL@StyledWriter@Json@@CA?AV?$basic_string@DU?$char_traits@D@std@@V?$allocator@D@2@@std@@ABV34@@Z$0:
	lea	ecx, DWORD PTR _normalized$[ebp]
	jmp	DWORD PTR __imp_??1?$basic_string@DU?$char_traits@D@std@@V?$allocator@D@2@@std@@QAE@XZ
__unwindfunclet$?normalizeEOL@StyledWriter@Json@@CA?AV?$basic_string@DU?$char_traits@D@std@@V?$allocator@D@2@@std@@ABV34@@Z$1:
	mov	eax, DWORD PTR $T63194[ebp]
	and	eax, 1
	je	$LN10@normalizeE
	and	DWORD PTR $T63194[ebp], -2		; fffffffeH
	mov	ecx, DWORD PTR ___$ReturnUdt$[ebp]
	jmp	DWORD PTR __imp_??1?$basic_string@DU?$char_traits@D@std@@V?$allocator@D@2@@std@@QAE@XZ
$LN10@normalizeE:
	ret	0
__ehhandler$?normalizeEOL@StyledWriter@Json@@CA?AV?$basic_string@DU?$char_traits@D@std@@V?$allocator@D@2@@std@@ABV34@@Z:
	mov	edx, DWORD PTR [esp+8]
	lea	eax, DWORD PTR [edx+12]
	mov	ecx, DWORD PTR [edx-56]
	xor	ecx, eax
	call	@__security_check_cookie@4
	mov	ecx, DWORD PTR [edx-16]
	xor	ecx, eax
	call	@__security_check_cookie@4
	mov	eax, OFFSET __ehfuncinfo$?normalizeEOL@StyledWriter@Json@@CA?AV?$basic_string@DU?$char_traits@D@std@@V?$allocator@D@2@@std@@ABV34@@Z
	jmp	___CxxFrameHandler3
text$x	ENDS
?normalizeEOL@StyledWriter@Json@@CA?AV?$basic_string@DU?$char_traits@D@std@@V?$allocator@D@2@@std@@ABV34@@Z ENDP ; Json::StyledWriter::normalizeEOL
PUBLIC	??0StyledStreamWriter@Json@@QAE@V?$basic_string@DU?$char_traits@D@std@@V?$allocator@D@2@@std@@@Z ; Json::StyledStreamWriter::StyledStreamWriter
;	COMDAT xdata$x
xdata$x	SEGMENT
__unwindtable$??0StyledStreamWriter@Json@@QAE@V?$basic_string@DU?$char_traits@D@std@@V?$allocator@D@2@@std@@@Z DD 0ffffffffH
	DD	FLAT:__unwindfunclet$??0StyledStreamWriter@Json@@QAE@V?$basic_string@DU?$char_traits@D@std@@V?$allocator@D@2@@std@@@Z$0
	DD	00H
	DD	FLAT:__unwindfunclet$??0StyledStreamWriter@Json@@QAE@V?$basic_string@DU?$char_traits@D@std@@V?$allocator@D@2@@std@@@Z$1
	DD	01H
	DD	FLAT:__unwindfunclet$??0StyledStreamWriter@Json@@QAE@V?$basic_string@DU?$char_traits@D@std@@V?$allocator@D@2@@std@@@Z$2
__ehfuncinfo$??0StyledStreamWriter@Json@@QAE@V?$basic_string@DU?$char_traits@D@std@@V?$allocator@D@2@@std@@@Z DD 019930522H
	DD	03H
	DD	FLAT:__unwindtable$??0StyledStreamWriter@Json@@QAE@V?$basic_string@DU?$char_traits@D@std@@V?$allocator@D@2@@std@@@Z
	DD	2 DUP(00H)
	DD	2 DUP(00H)
	DD	00H
	DD	01H
; Function compile flags: /Odtp
xdata$x	ENDS
;	COMDAT ??0StyledStreamWriter@Json@@QAE@V?$basic_string@DU?$char_traits@D@std@@V?$allocator@D@2@@std@@@Z
_TEXT	SEGMENT
_this$ = -20						; size = 4
__$EHRec$ = -12						; size = 12
_indentation$ = 8					; size = 28
??0StyledStreamWriter@Json@@QAE@V?$basic_string@DU?$char_traits@D@std@@V?$allocator@D@2@@std@@@Z PROC ; Json::StyledStreamWriter::StyledStreamWriter, COMDAT
; _this$ = ecx

; 548  : {

	push	ebp
	mov	ebp, esp
	push	-1
	push	__ehhandler$??0StyledStreamWriter@Json@@QAE@V?$basic_string@DU?$char_traits@D@std@@V?$allocator@D@2@@std@@@Z
	mov	eax, DWORD PTR fs:0
	push	eax
	sub	esp, 8
	mov	eax, DWORD PTR ___security_cookie
	xor	eax, ebp
	push	eax
	lea	eax, DWORD PTR __$EHRec$[ebp]
	mov	DWORD PTR fs:0, eax
	mov	DWORD PTR _this$[ebp], ecx
	mov	DWORD PTR __$EHRec$[ebp+8], 0
	mov	ecx, DWORD PTR _this$[ebp]
	call	??0?$vector@V?$basic_string@DU?$char_traits@D@std@@V?$allocator@D@2@@std@@V?$allocator@V?$basic_string@DU?$char_traits@D@std@@V?$allocator@D@2@@std@@@2@@std@@QAE@XZ ; std::vector<std::basic_string<char,std::char_traits<char>,std::allocator<char> >,std::allocator<std::basic_string<char,std::char_traits<char>,std::allocator<char> > > >::vector<std::basic_string<char,std::char_traits<char>,std::allocator<char> >,std::allocator<std::basic_string<char,std::char_traits<char>,std::allocator<char> > > >
	mov	BYTE PTR __$EHRec$[ebp+8], 1
	mov	eax, DWORD PTR _this$[ebp]
	mov	DWORD PTR [eax+24], 0
	mov	ecx, DWORD PTR _this$[ebp]
	add	ecx, 28					; 0000001cH
	call	DWORD PTR __imp_??0?$basic_string@DU?$char_traits@D@std@@V?$allocator@D@2@@std@@QAE@XZ
	mov	BYTE PTR __$EHRec$[ebp+8], 2
	mov	ecx, DWORD PTR _this$[ebp]
	mov	DWORD PTR [ecx+56], 74			; 0000004aH
	lea	edx, DWORD PTR _indentation$[ebp]
	push	edx
	mov	ecx, DWORD PTR _this$[ebp]
	add	ecx, 60					; 0000003cH
	call	DWORD PTR __imp_??0?$basic_string@DU?$char_traits@D@std@@V?$allocator@D@2@@std@@QAE@ABV01@@Z

; 549  : }

	mov	DWORD PTR __$EHRec$[ebp+8], -1
	lea	ecx, DWORD PTR _indentation$[ebp]
	call	DWORD PTR __imp_??1?$basic_string@DU?$char_traits@D@std@@V?$allocator@D@2@@std@@QAE@XZ
	mov	eax, DWORD PTR _this$[ebp]
	mov	ecx, DWORD PTR __$EHRec$[ebp]
	mov	DWORD PTR fs:0, ecx
	pop	ecx
	mov	esp, ebp
	pop	ebp
	ret	28					; 0000001cH
_TEXT	ENDS
;	COMDAT text$x
text$x	SEGMENT
__unwindfunclet$??0StyledStreamWriter@Json@@QAE@V?$basic_string@DU?$char_traits@D@std@@V?$allocator@D@2@@std@@@Z$0:
	lea	ecx, DWORD PTR _indentation$[ebp]
	jmp	DWORD PTR __imp_??1?$basic_string@DU?$char_traits@D@std@@V?$allocator@D@2@@std@@QAE@XZ
__unwindfunclet$??0StyledStreamWriter@Json@@QAE@V?$basic_string@DU?$char_traits@D@std@@V?$allocator@D@2@@std@@@Z$1:
	mov	ecx, DWORD PTR _this$[ebp]
	jmp	??1?$vector@V?$basic_string@DU?$char_traits@D@std@@V?$allocator@D@2@@std@@V?$allocator@V?$basic_string@DU?$char_traits@D@std@@V?$allocator@D@2@@std@@@2@@std@@QAE@XZ ; std::vector<std::basic_string<char,std::char_traits<char>,std::allocator<char> >,std::allocator<std::basic_string<char,std::char_traits<char>,std::allocator<char> > > >::~vector<std::basic_string<char,std::char_traits<char>,std::allocator<char> >,std::allocator<std::basic_string<char,std::char_traits<char>,std::allocator<char> > > >
__unwindfunclet$??0StyledStreamWriter@Json@@QAE@V?$basic_string@DU?$char_traits@D@std@@V?$allocator@D@2@@std@@@Z$2:
	mov	ecx, DWORD PTR _this$[ebp]
	add	ecx, 28					; 0000001cH
	jmp	DWORD PTR __imp_??1?$basic_string@DU?$char_traits@D@std@@V?$allocator@D@2@@std@@QAE@XZ
__ehhandler$??0StyledStreamWriter@Json@@QAE@V?$basic_string@DU?$char_traits@D@std@@V?$allocator@D@2@@std@@@Z:
	mov	edx, DWORD PTR [esp+8]
	lea	eax, DWORD PTR [edx+12]
	mov	ecx, DWORD PTR [edx-12]
	xor	ecx, eax
	call	@__security_check_cookie@4
	mov	eax, OFFSET __ehfuncinfo$??0StyledStreamWriter@Json@@QAE@V?$basic_string@DU?$char_traits@D@std@@V?$allocator@D@2@@std@@@Z
	jmp	___CxxFrameHandler3
text$x	ENDS
??0StyledStreamWriter@Json@@QAE@V?$basic_string@DU?$char_traits@D@std@@V?$allocator@D@2@@std@@@Z ENDP ; Json::StyledStreamWriter::StyledStreamWriter
PUBLIC	?writeCommentAfterValueOnSameLine@StyledStreamWriter@Json@@AAEXABVValue@2@@Z ; Json::StyledStreamWriter::writeCommentAfterValueOnSameLine
PUBLIC	?writeValue@StyledStreamWriter@Json@@AAEXABVValue@2@@Z ; Json::StyledStreamWriter::writeValue
PUBLIC	?writeCommentBeforeValue@StyledStreamWriter@Json@@AAEXABVValue@2@@Z ; Json::StyledStreamWriter::writeCommentBeforeValue
PUBLIC	?write@StyledStreamWriter@Json@@QAEXAAV?$basic_ostream@DU?$char_traits@D@std@@@std@@ABVValue@2@@Z ; Json::StyledStreamWriter::write
; Function compile flags: /Odtp
;	COMDAT ?write@StyledStreamWriter@Json@@QAEXAAV?$basic_ostream@DU?$char_traits@D@std@@@std@@ABVValue@2@@Z
_TEXT	SEGMENT
_this$ = -4						; size = 4
_out$ = 8						; size = 4
_root$ = 12						; size = 4
?write@StyledStreamWriter@Json@@QAEXAAV?$basic_ostream@DU?$char_traits@D@std@@@std@@ABVValue@2@@Z PROC ; Json::StyledStreamWriter::write, COMDAT
; _this$ = ecx

; 554  : {

	push	ebp
	mov	ebp, esp
	push	ecx
	mov	DWORD PTR _this$[ebp], ecx

; 555  :    document_ = &out;

	mov	eax, DWORD PTR _this$[ebp]
	mov	ecx, DWORD PTR _out$[ebp]
	mov	DWORD PTR [eax+24], ecx

; 556  :    addChildValues_ = false;

	mov	edx, DWORD PTR _this$[ebp]
	mov	BYTE PTR [edx+88], 0

; 557  :    indentString_ = "";

	push	OFFSET ??_C@_00CNPNBAHC@?$AA@
	mov	ecx, DWORD PTR _this$[ebp]
	add	ecx, 28					; 0000001cH
	call	DWORD PTR __imp_??4?$basic_string@DU?$char_traits@D@std@@V?$allocator@D@2@@std@@QAEAAV01@PBD@Z

; 558  :    writeCommentBeforeValue( root );

	mov	eax, DWORD PTR _root$[ebp]
	push	eax
	mov	ecx, DWORD PTR _this$[ebp]
	call	?writeCommentBeforeValue@StyledStreamWriter@Json@@AAEXABVValue@2@@Z ; Json::StyledStreamWriter::writeCommentBeforeValue

; 559  :    writeValue( root );

	mov	ecx, DWORD PTR _root$[ebp]
	push	ecx
	mov	ecx, DWORD PTR _this$[ebp]
	call	?writeValue@StyledStreamWriter@Json@@AAEXABVValue@2@@Z ; Json::StyledStreamWriter::writeValue

; 560  :    writeCommentAfterValueOnSameLine( root );

	mov	edx, DWORD PTR _root$[ebp]
	push	edx
	mov	ecx, DWORD PTR _this$[ebp]
	call	?writeCommentAfterValueOnSameLine@StyledStreamWriter@Json@@AAEXABVValue@2@@Z ; Json::StyledStreamWriter::writeCommentAfterValueOnSameLine

; 561  :    *document_ << "\n";

	push	OFFSET ??_C@_01EEMJAFIK@?6?$AA@
	mov	eax, DWORD PTR _this$[ebp]
	mov	ecx, DWORD PTR [eax+24]
	push	ecx
	call	??$?6U?$char_traits@D@std@@@std@@YAAAV?$basic_ostream@DU?$char_traits@D@std@@@0@AAV10@PBD@Z ; std::operator<<<std::char_traits<char> >
	add	esp, 8

; 562  :    document_ = NULL; // Forget the stream, for safety.

	mov	edx, DWORD PTR _this$[ebp]
	mov	DWORD PTR [edx+24], 0

; 563  : }

	mov	esp, ebp
	pop	ebp
	ret	8
?write@StyledStreamWriter@Json@@QAEXAAV?$basic_ostream@DU?$char_traits@D@std@@@std@@ABVValue@2@@Z ENDP ; Json::StyledStreamWriter::write
_TEXT	ENDS
PUBLIC	?unindent@StyledStreamWriter@Json@@AAEXXZ	; Json::StyledStreamWriter::unindent
PUBLIC	?indent@StyledStreamWriter@Json@@AAEXXZ		; Json::StyledStreamWriter::indent
PUBLIC	?writeWithIndent@StyledStreamWriter@Json@@AAEXABV?$basic_string@DU?$char_traits@D@std@@V?$allocator@D@2@@std@@@Z ; Json::StyledStreamWriter::writeWithIndent
PUBLIC	?writeArrayValue@StyledStreamWriter@Json@@AAEXABVValue@2@@Z ; Json::StyledStreamWriter::writeArrayValue
PUBLIC	?pushValue@StyledStreamWriter@Json@@AAEXABV?$basic_string@DU?$char_traits@D@std@@V?$allocator@D@2@@std@@@Z ; Json::StyledStreamWriter::pushValue
;	COMDAT xdata$x
xdata$x	SEGMENT
__ehfuncinfo$?writeValue@StyledStreamWriter@Json@@AAEXABVValue@2@@Z DD 019930522H
	DD	0bH
	DD	FLAT:__unwindtable$?writeValue@StyledStreamWriter@Json@@AAEXABVValue@2@@Z
	DD	2 DUP(00H)
	DD	2 DUP(00H)
	DD	00H
	DD	01H
__unwindtable$?writeValue@StyledStreamWriter@Json@@AAEXABVValue@2@@Z DD 0ffffffffH
	DD	FLAT:__unwindfunclet$?writeValue@StyledStreamWriter@Json@@AAEXABVValue@2@@Z$0
	DD	0ffffffffH
	DD	FLAT:__unwindfunclet$?writeValue@StyledStreamWriter@Json@@AAEXABVValue@2@@Z$1
	DD	0ffffffffH
	DD	FLAT:__unwindfunclet$?writeValue@StyledStreamWriter@Json@@AAEXABVValue@2@@Z$2
	DD	0ffffffffH
	DD	FLAT:__unwindfunclet$?writeValue@StyledStreamWriter@Json@@AAEXABVValue@2@@Z$3
	DD	0ffffffffH
	DD	FLAT:__unwindfunclet$?writeValue@StyledStreamWriter@Json@@AAEXABVValue@2@@Z$4
	DD	0ffffffffH
	DD	FLAT:__unwindfunclet$?writeValue@StyledStreamWriter@Json@@AAEXABVValue@2@@Z$5
	DD	0ffffffffH
	DD	FLAT:__unwindfunclet$?writeValue@StyledStreamWriter@Json@@AAEXABVValue@2@@Z$6
	DD	06H
	DD	FLAT:__unwindfunclet$?writeValue@StyledStreamWriter@Json@@AAEXABVValue@2@@Z$7
	DD	06H
	DD	FLAT:__unwindfunclet$?writeValue@StyledStreamWriter@Json@@AAEXABVValue@2@@Z$8
	DD	06H
	DD	FLAT:__unwindfunclet$?writeValue@StyledStreamWriter@Json@@AAEXABVValue@2@@Z$9
	DD	06H
	DD	FLAT:__unwindfunclet$?writeValue@StyledStreamWriter@Json@@AAEXABVValue@2@@Z$10
; Function compile flags: /Odtp
xdata$x	ENDS
;	COMDAT ?writeValue@StyledStreamWriter@Json@@AAEXABVValue@2@@Z
_TEXT	SEGMENT
tv245 = -396						; size = 4
tv168 = -392						; size = 4
tv240 = -388						; size = 4
tv250 = -384						; size = 4
tv238 = -380						; size = 4
tv249 = -376						; size = 4
tv236 = -372						; size = 4
tv248 = -368						; size = 4
tv234 = -364						; size = 4
tv247 = -360						; size = 4
tv232 = -356						; size = 4
tv69 = -352						; size = 4
tv66 = -348						; size = 4
_this$ = -344						; size = 4
$T63229 = -340						; size = 28
$T63228 = -312						; size = 8
$T63227 = -304						; size = 28
$T63226 = -276						; size = 28
$T63225 = -248						; size = 28
$T63224 = -220						; size = 28
$T63223 = -192						; size = 28
$T63222 = -164						; size = 28
$T63221 = -136						; size = 28
$T63220 = -108						; size = 28
$T63219 = -80						; size = 28
_name$56535 = -52					; size = 4
_childValue$56536 = -48					; size = 4
_it$56530 = -44						; size = 8
_members$56525 = -36					; size = 24
__$EHRec$ = -12						; size = 12
_value$ = 8						; size = 4
?writeValue@StyledStreamWriter@Json@@AAEXABVValue@2@@Z PROC ; Json::StyledStreamWriter::writeValue, COMDAT
; _this$ = ecx

; 568  : {

	push	ebp
	mov	ebp, esp
	push	-1
	push	__ehhandler$?writeValue@StyledStreamWriter@Json@@AAEXABVValue@2@@Z
	mov	eax, DWORD PTR fs:0
	push	eax
	sub	esp, 384				; 00000180H
	mov	eax, DWORD PTR ___security_cookie
	xor	eax, ebp
	push	eax
	lea	eax, DWORD PTR __$EHRec$[ebp]
	mov	DWORD PTR fs:0, eax
	mov	DWORD PTR _this$[ebp], ecx

; 569  :    switch ( value.type() )

	mov	ecx, DWORD PTR _value$[ebp]
	call	?type@Value@Json@@QBE?AW4ValueType@2@XZ	; Json::Value::type
	mov	DWORD PTR tv66[ebp], eax
	cmp	DWORD PTR tv66[ebp], 7
	ja	$LN14@writeValue@3
	mov	eax, DWORD PTR tv66[ebp]
	jmp	DWORD PTR $LN30@writeValue@3[eax*4]
$LN13@writeValue@3:

; 570  :    {
; 571  :    case nullValue:
; 572  :       pushValue( "null" );

	push	OFFSET ??_C@_04MLLLIHIP@null?$AA@
	lea	ecx, DWORD PTR $T63219[ebp]
	call	DWORD PTR __imp_??0?$basic_string@DU?$char_traits@D@std@@V?$allocator@D@2@@std@@QAE@PBD@Z
	mov	DWORD PTR __$EHRec$[ebp+8], 0
	lea	ecx, DWORD PTR $T63219[ebp]
	push	ecx
	mov	ecx, DWORD PTR _this$[ebp]
	call	?pushValue@StyledStreamWriter@Json@@AAEXABV?$basic_string@DU?$char_traits@D@std@@V?$allocator@D@2@@std@@@Z ; Json::StyledStreamWriter::pushValue
	mov	DWORD PTR __$EHRec$[ebp+8], -1
	lea	ecx, DWORD PTR $T63219[ebp]
	call	DWORD PTR __imp_??1?$basic_string@DU?$char_traits@D@std@@V?$allocator@D@2@@std@@QAE@XZ

; 573  :       break;

	jmp	$LN14@writeValue@3
$LN12@writeValue@3:

; 574  :    case intValue:
; 575  :       pushValue( valueToString( value.asInt() ) );

	mov	ecx, DWORD PTR _value$[ebp]
	call	?asInt@Value@Json@@QBEHXZ		; Json::Value::asInt
	push	eax
	lea	edx, DWORD PTR $T63220[ebp]
	push	edx
	call	?valueToString@Json@@YA?AV?$basic_string@DU?$char_traits@D@std@@V?$allocator@D@2@@std@@H@Z ; Json::valueToString
	add	esp, 8
	mov	DWORD PTR tv69[ebp], eax
	mov	eax, DWORD PTR tv69[ebp]
	mov	DWORD PTR tv232[ebp], eax
	mov	DWORD PTR __$EHRec$[ebp+8], 1
	mov	ecx, DWORD PTR tv232[ebp]
	push	ecx
	mov	ecx, DWORD PTR _this$[ebp]
	call	?pushValue@StyledStreamWriter@Json@@AAEXABV?$basic_string@DU?$char_traits@D@std@@V?$allocator@D@2@@std@@@Z ; Json::StyledStreamWriter::pushValue
	mov	DWORD PTR __$EHRec$[ebp+8], -1
	lea	ecx, DWORD PTR $T63220[ebp]
	call	DWORD PTR __imp_??1?$basic_string@DU?$char_traits@D@std@@V?$allocator@D@2@@std@@QAE@XZ

; 576  :       break;

	jmp	$LN14@writeValue@3
$LN11@writeValue@3:

; 577  :    case uintValue:
; 578  :       pushValue( valueToString( value.asUInt() ) );

	mov	ecx, DWORD PTR _value$[ebp]
	call	?asUInt@Value@Json@@QBEIXZ		; Json::Value::asUInt
	push	eax
	lea	edx, DWORD PTR $T63221[ebp]
	push	edx
	call	?valueToString@Json@@YA?AV?$basic_string@DU?$char_traits@D@std@@V?$allocator@D@2@@std@@I@Z ; Json::valueToString
	add	esp, 8
	mov	DWORD PTR tv247[ebp], eax
	mov	eax, DWORD PTR tv247[ebp]
	mov	DWORD PTR tv234[ebp], eax
	mov	DWORD PTR __$EHRec$[ebp+8], 2
	mov	ecx, DWORD PTR tv234[ebp]
	push	ecx
	mov	ecx, DWORD PTR _this$[ebp]
	call	?pushValue@StyledStreamWriter@Json@@AAEXABV?$basic_string@DU?$char_traits@D@std@@V?$allocator@D@2@@std@@@Z ; Json::StyledStreamWriter::pushValue
	mov	DWORD PTR __$EHRec$[ebp+8], -1
	lea	ecx, DWORD PTR $T63221[ebp]
	call	DWORD PTR __imp_??1?$basic_string@DU?$char_traits@D@std@@V?$allocator@D@2@@std@@QAE@XZ

; 579  :       break;

	jmp	$LN14@writeValue@3
$LN10@writeValue@3:

; 580  :    case realValue:
; 581  :       pushValue( valueToString( value.asDouble() ) );

	mov	ecx, DWORD PTR _value$[ebp]
	call	?asDouble@Value@Json@@QBENXZ		; Json::Value::asDouble
	sub	esp, 8
	fstp	QWORD PTR [esp]
	lea	edx, DWORD PTR $T63222[ebp]
	push	edx
	call	?valueToString@Json@@YA?AV?$basic_string@DU?$char_traits@D@std@@V?$allocator@D@2@@std@@N@Z ; Json::valueToString
	add	esp, 12					; 0000000cH
	mov	DWORD PTR tv248[ebp], eax
	mov	eax, DWORD PTR tv248[ebp]
	mov	DWORD PTR tv236[ebp], eax
	mov	DWORD PTR __$EHRec$[ebp+8], 3
	mov	ecx, DWORD PTR tv236[ebp]
	push	ecx
	mov	ecx, DWORD PTR _this$[ebp]
	call	?pushValue@StyledStreamWriter@Json@@AAEXABV?$basic_string@DU?$char_traits@D@std@@V?$allocator@D@2@@std@@@Z ; Json::StyledStreamWriter::pushValue
	mov	DWORD PTR __$EHRec$[ebp+8], -1
	lea	ecx, DWORD PTR $T63222[ebp]
	call	DWORD PTR __imp_??1?$basic_string@DU?$char_traits@D@std@@V?$allocator@D@2@@std@@QAE@XZ

; 582  :       break;

	jmp	$LN14@writeValue@3
$LN9@writeValue@3:

; 583  :    case stringValue:
; 584  :       pushValue( valueToQuotedString( value.asCString() ) );

	mov	ecx, DWORD PTR _value$[ebp]
	call	?asCString@Value@Json@@QBEPBDXZ		; Json::Value::asCString
	push	eax
	lea	edx, DWORD PTR $T63223[ebp]
	push	edx
	call	?valueToQuotedString@Json@@YA?AV?$basic_string@DU?$char_traits@D@std@@V?$allocator@D@2@@std@@PBD@Z ; Json::valueToQuotedString
	add	esp, 8
	mov	DWORD PTR tv249[ebp], eax
	mov	eax, DWORD PTR tv249[ebp]
	mov	DWORD PTR tv238[ebp], eax
	mov	DWORD PTR __$EHRec$[ebp+8], 4
	mov	ecx, DWORD PTR tv238[ebp]
	push	ecx
	mov	ecx, DWORD PTR _this$[ebp]
	call	?pushValue@StyledStreamWriter@Json@@AAEXABV?$basic_string@DU?$char_traits@D@std@@V?$allocator@D@2@@std@@@Z ; Json::StyledStreamWriter::pushValue
	mov	DWORD PTR __$EHRec$[ebp+8], -1
	lea	ecx, DWORD PTR $T63223[ebp]
	call	DWORD PTR __imp_??1?$basic_string@DU?$char_traits@D@std@@V?$allocator@D@2@@std@@QAE@XZ

; 585  :       break;

	jmp	$LN14@writeValue@3
$LN8@writeValue@3:

; 586  :    case booleanValue:
; 587  :       pushValue( valueToString( value.asBool() ) );

	mov	ecx, DWORD PTR _value$[ebp]
	call	?asBool@Value@Json@@QBE_NXZ		; Json::Value::asBool
	movzx	edx, al
	push	edx
	lea	eax, DWORD PTR $T63224[ebp]
	push	eax
	call	?valueToString@Json@@YA?AV?$basic_string@DU?$char_traits@D@std@@V?$allocator@D@2@@std@@_N@Z ; Json::valueToString
	add	esp, 8
	mov	DWORD PTR tv250[ebp], eax
	mov	ecx, DWORD PTR tv250[ebp]
	mov	DWORD PTR tv240[ebp], ecx
	mov	DWORD PTR __$EHRec$[ebp+8], 5
	mov	edx, DWORD PTR tv240[ebp]
	push	edx
	mov	ecx, DWORD PTR _this$[ebp]
	call	?pushValue@StyledStreamWriter@Json@@AAEXABV?$basic_string@DU?$char_traits@D@std@@V?$allocator@D@2@@std@@@Z ; Json::StyledStreamWriter::pushValue
	mov	DWORD PTR __$EHRec$[ebp+8], -1
	lea	ecx, DWORD PTR $T63224[ebp]
	call	DWORD PTR __imp_??1?$basic_string@DU?$char_traits@D@std@@V?$allocator@D@2@@std@@QAE@XZ

; 588  :       break;

	jmp	$LN14@writeValue@3
$LN7@writeValue@3:

; 589  :    case arrayValue:
; 590  :       writeArrayValue( value);

	mov	eax, DWORD PTR _value$[ebp]
	push	eax
	mov	ecx, DWORD PTR _this$[ebp]
	call	?writeArrayValue@StyledStreamWriter@Json@@AAEXABVValue@2@@Z ; Json::StyledStreamWriter::writeArrayValue

; 591  :       break;

	jmp	$LN14@writeValue@3
$LN6@writeValue@3:

; 592  :    case objectValue:
; 593  :       {
; 594  :          Value::Members members( value.getMemberNames() );

	lea	ecx, DWORD PTR _members$56525[ebp]
	push	ecx
	mov	ecx, DWORD PTR _value$[ebp]
	call	?getMemberNames@Value@Json@@QBE?AV?$vector@V?$basic_string@DU?$char_traits@D@std@@V?$allocator@D@2@@std@@V?$allocator@V?$basic_string@DU?$char_traits@D@std@@V?$allocator@D@2@@std@@@2@@std@@XZ ; Json::Value::getMemberNames
	mov	DWORD PTR __$EHRec$[ebp+8], 6

; 595  :          if ( members.empty() )

	lea	ecx, DWORD PTR _members$56525[ebp]
	call	?empty@?$vector@V?$basic_string@DU?$char_traits@D@std@@V?$allocator@D@2@@std@@V?$allocator@V?$basic_string@DU?$char_traits@D@std@@V?$allocator@D@2@@std@@@2@@std@@QBE_NXZ ; std::vector<std::basic_string<char,std::char_traits<char>,std::allocator<char> >,std::allocator<std::basic_string<char,std::char_traits<char>,std::allocator<char> > > >::empty
	movzx	edx, al
	test	edx, edx
	je	SHORT $LN5@writeValue@3

; 596  :             pushValue( "{}" );

	push	OFFSET ??_C@_02MCILKGOH@?$HL?$HN?$AA@
	lea	ecx, DWORD PTR $T63225[ebp]
	call	DWORD PTR __imp_??0?$basic_string@DU?$char_traits@D@std@@V?$allocator@D@2@@std@@QAE@PBD@Z
	mov	BYTE PTR __$EHRec$[ebp+8], 7
	lea	eax, DWORD PTR $T63225[ebp]
	push	eax
	mov	ecx, DWORD PTR _this$[ebp]
	call	?pushValue@StyledStreamWriter@Json@@AAEXABV?$basic_string@DU?$char_traits@D@std@@V?$allocator@D@2@@std@@@Z ; Json::StyledStreamWriter::pushValue
	mov	BYTE PTR __$EHRec$[ebp+8], 6
	lea	ecx, DWORD PTR $T63225[ebp]
	call	DWORD PTR __imp_??1?$basic_string@DU?$char_traits@D@std@@V?$allocator@D@2@@std@@QAE@XZ

; 597  :          else

	jmp	$LN4@writeValue@3
$LN5@writeValue@3:

; 598  :          {
; 599  :             writeWithIndent( "{" );

	push	OFFSET ??_C@_01HCONENDN@?$HL?$AA@
	lea	ecx, DWORD PTR $T63226[ebp]
	call	DWORD PTR __imp_??0?$basic_string@DU?$char_traits@D@std@@V?$allocator@D@2@@std@@QAE@PBD@Z
	mov	BYTE PTR __$EHRec$[ebp+8], 8
	lea	ecx, DWORD PTR $T63226[ebp]
	push	ecx
	mov	ecx, DWORD PTR _this$[ebp]
	call	?writeWithIndent@StyledStreamWriter@Json@@AAEXABV?$basic_string@DU?$char_traits@D@std@@V?$allocator@D@2@@std@@@Z ; Json::StyledStreamWriter::writeWithIndent
	mov	BYTE PTR __$EHRec$[ebp+8], 6
	lea	ecx, DWORD PTR $T63226[ebp]
	call	DWORD PTR __imp_??1?$basic_string@DU?$char_traits@D@std@@V?$allocator@D@2@@std@@QAE@XZ

; 600  :             indent();

	mov	ecx, DWORD PTR _this$[ebp]
	call	?indent@StyledStreamWriter@Json@@AAEXXZ	; Json::StyledStreamWriter::indent

; 601  :             Value::Members::iterator it = members.begin();

	lea	edx, DWORD PTR _it$56530[ebp]
	push	edx
	lea	ecx, DWORD PTR _members$56525[ebp]
	call	?begin@?$vector@V?$basic_string@DU?$char_traits@D@std@@V?$allocator@D@2@@std@@V?$allocator@V?$basic_string@DU?$char_traits@D@std@@V?$allocator@D@2@@std@@@2@@std@@QAE?AV?$_Vector_iterator@V?$basic_string@DU?$char_traits@D@std@@V?$allocator@D@2@@std@@V?$allocator@V?$basic_string@DU?$char_traits@D@std@@V?$allocator@D@2@@std@@@2@@2@XZ ; std::vector<std::basic_string<char,std::char_traits<char>,std::allocator<char> >,std::allocator<std::basic_string<char,std::char_traits<char>,std::allocator<char> > > >::begin
$LN3@writeValue@3:

; 602  :             while ( true )

	mov	eax, 1
	test	eax, eax
	je	$LN2@writeValue@3

; 603  :             {
; 604  :                const std::string &name = *it;

	lea	ecx, DWORD PTR _it$56530[ebp]
	call	??D?$_Vector_iterator@V?$basic_string@DU?$char_traits@D@std@@V?$allocator@D@2@@std@@V?$allocator@V?$basic_string@DU?$char_traits@D@std@@V?$allocator@D@2@@std@@@2@@std@@QBEAAV?$basic_string@DU?$char_traits@D@std@@V?$allocator@D@2@@1@XZ ; std::_Vector_iterator<std::basic_string<char,std::char_traits<char>,std::allocator<char> >,std::allocator<std::basic_string<char,std::char_traits<char>,std::allocator<char> > > >::operator*
	mov	DWORD PTR _name$56535[ebp], eax

; 605  :                const Value &childValue = value[name];

	mov	ecx, DWORD PTR _name$56535[ebp]
	push	ecx
	mov	ecx, DWORD PTR _value$[ebp]
	call	??AValue@Json@@QBEABV01@ABV?$basic_string@DU?$char_traits@D@std@@V?$allocator@D@2@@std@@@Z ; Json::Value::operator[]
	mov	DWORD PTR _childValue$56536[ebp], eax

; 606  :                writeCommentBeforeValue( childValue );

	mov	edx, DWORD PTR _childValue$56536[ebp]
	push	edx
	mov	ecx, DWORD PTR _this$[ebp]
	call	?writeCommentBeforeValue@StyledStreamWriter@Json@@AAEXABVValue@2@@Z ; Json::StyledStreamWriter::writeCommentBeforeValue

; 607  :                writeWithIndent( valueToQuotedString( name.c_str() ) );

	mov	ecx, DWORD PTR _name$56535[ebp]
	call	DWORD PTR __imp_?c_str@?$basic_string@DU?$char_traits@D@std@@V?$allocator@D@2@@std@@QBEPBDXZ
	push	eax
	lea	eax, DWORD PTR $T63227[ebp]
	push	eax
	call	?valueToQuotedString@Json@@YA?AV?$basic_string@DU?$char_traits@D@std@@V?$allocator@D@2@@std@@PBD@Z ; Json::valueToQuotedString
	add	esp, 8
	mov	DWORD PTR tv168[ebp], eax
	mov	ecx, DWORD PTR tv168[ebp]
	mov	DWORD PTR tv245[ebp], ecx
	mov	BYTE PTR __$EHRec$[ebp+8], 9
	mov	edx, DWORD PTR tv245[ebp]
	push	edx
	mov	ecx, DWORD PTR _this$[ebp]
	call	?writeWithIndent@StyledStreamWriter@Json@@AAEXABV?$basic_string@DU?$char_traits@D@std@@V?$allocator@D@2@@std@@@Z ; Json::StyledStreamWriter::writeWithIndent
	mov	BYTE PTR __$EHRec$[ebp+8], 6
	lea	ecx, DWORD PTR $T63227[ebp]
	call	DWORD PTR __imp_??1?$basic_string@DU?$char_traits@D@std@@V?$allocator@D@2@@std@@QAE@XZ

; 608  :                *document_ << " : ";

	push	OFFSET ??_C@_03MCPBMLDJ@?5?3?5?$AA@
	mov	eax, DWORD PTR _this$[ebp]
	mov	ecx, DWORD PTR [eax+24]
	push	ecx
	call	??$?6U?$char_traits@D@std@@@std@@YAAAV?$basic_ostream@DU?$char_traits@D@std@@@0@AAV10@PBD@Z ; std::operator<<<std::char_traits<char> >
	add	esp, 8

; 609  :                writeValue( childValue );

	mov	edx, DWORD PTR _childValue$56536[ebp]
	push	edx
	mov	ecx, DWORD PTR _this$[ebp]
	call	?writeValue@StyledStreamWriter@Json@@AAEXABVValue@2@@Z ; Json::StyledStreamWriter::writeValue

; 610  :                if ( ++it == members.end() )

	lea	eax, DWORD PTR $T63228[ebp]
	push	eax
	lea	ecx, DWORD PTR _members$56525[ebp]
	call	?end@?$vector@V?$basic_string@DU?$char_traits@D@std@@V?$allocator@D@2@@std@@V?$allocator@V?$basic_string@DU?$char_traits@D@std@@V?$allocator@D@2@@std@@@2@@std@@QAE?AV?$_Vector_iterator@V?$basic_string@DU?$char_traits@D@std@@V?$allocator@D@2@@std@@V?$allocator@V?$basic_string@DU?$char_traits@D@std@@V?$allocator@D@2@@std@@@2@@2@XZ ; std::vector<std::basic_string<char,std::char_traits<char>,std::allocator<char> >,std::allocator<std::basic_string<char,std::char_traits<char>,std::allocator<char> > > >::end
	push	eax
	lea	ecx, DWORD PTR _it$56530[ebp]
	call	??E?$_Vector_iterator@V?$basic_string@DU?$char_traits@D@std@@V?$allocator@D@2@@std@@V?$allocator@V?$basic_string@DU?$char_traits@D@std@@V?$allocator@D@2@@std@@@2@@std@@QAEAAV01@XZ ; std::_Vector_iterator<std::basic_string<char,std::char_traits<char>,std::allocator<char> >,std::allocator<std::basic_string<char,std::char_traits<char>,std::allocator<char> > > >::operator++
	mov	ecx, eax
	call	??8?$_Vector_const_iterator@V?$basic_string@DU?$char_traits@D@std@@V?$allocator@D@2@@std@@V?$allocator@V?$basic_string@DU?$char_traits@D@std@@V?$allocator@D@2@@std@@@2@@std@@QBE_NABV01@@Z ; std::_Vector_const_iterator<std::basic_string<char,std::char_traits<char>,std::allocator<char> >,std::allocator<std::basic_string<char,std::char_traits<char>,std::allocator<char> > > >::operator==
	movzx	ecx, al
	test	ecx, ecx
	je	SHORT $LN1@writeValue@3

; 611  :                {
; 612  :                   writeCommentAfterValueOnSameLine( childValue );

	mov	edx, DWORD PTR _childValue$56536[ebp]
	push	edx
	mov	ecx, DWORD PTR _this$[ebp]
	call	?writeCommentAfterValueOnSameLine@StyledStreamWriter@Json@@AAEXABVValue@2@@Z ; Json::StyledStreamWriter::writeCommentAfterValueOnSameLine

; 613  :                   break;

	jmp	SHORT $LN2@writeValue@3
$LN1@writeValue@3:

; 614  :                }
; 615  :                *document_ << ",";

	push	OFFSET ??_C@_01IHBHIGKO@?0?$AA@
	mov	eax, DWORD PTR _this$[ebp]
	mov	ecx, DWORD PTR [eax+24]
	push	ecx
	call	??$?6U?$char_traits@D@std@@@std@@YAAAV?$basic_ostream@DU?$char_traits@D@std@@@0@AAV10@PBD@Z ; std::operator<<<std::char_traits<char> >
	add	esp, 8

; 616  :                writeCommentAfterValueOnSameLine( childValue );

	mov	edx, DWORD PTR _childValue$56536[ebp]
	push	edx
	mov	ecx, DWORD PTR _this$[ebp]
	call	?writeCommentAfterValueOnSameLine@StyledStreamWriter@Json@@AAEXABVValue@2@@Z ; Json::StyledStreamWriter::writeCommentAfterValueOnSameLine

; 617  :             }

	jmp	$LN3@writeValue@3
$LN2@writeValue@3:

; 618  :             unindent();

	mov	ecx, DWORD PTR _this$[ebp]
	call	?unindent@StyledStreamWriter@Json@@AAEXXZ ; Json::StyledStreamWriter::unindent

; 619  :             writeWithIndent( "}" );

	push	OFFSET ??_C@_01CELHOKLL@?$HN?$AA@
	lea	ecx, DWORD PTR $T63229[ebp]
	call	DWORD PTR __imp_??0?$basic_string@DU?$char_traits@D@std@@V?$allocator@D@2@@std@@QAE@PBD@Z
	mov	BYTE PTR __$EHRec$[ebp+8], 10		; 0000000aH
	lea	eax, DWORD PTR $T63229[ebp]
	push	eax
	mov	ecx, DWORD PTR _this$[ebp]
	call	?writeWithIndent@StyledStreamWriter@Json@@AAEXABV?$basic_string@DU?$char_traits@D@std@@V?$allocator@D@2@@std@@@Z ; Json::StyledStreamWriter::writeWithIndent
	mov	BYTE PTR __$EHRec$[ebp+8], 6
	lea	ecx, DWORD PTR $T63229[ebp]
	call	DWORD PTR __imp_??1?$basic_string@DU?$char_traits@D@std@@V?$allocator@D@2@@std@@QAE@XZ
$LN4@writeValue@3:

; 620  :          }
; 621  :       }

	mov	DWORD PTR __$EHRec$[ebp+8], -1
	lea	ecx, DWORD PTR _members$56525[ebp]
	call	??1?$vector@V?$basic_string@DU?$char_traits@D@std@@V?$allocator@D@2@@std@@V?$allocator@V?$basic_string@DU?$char_traits@D@std@@V?$allocator@D@2@@std@@@2@@std@@QAE@XZ ; std::vector<std::basic_string<char,std::char_traits<char>,std::allocator<char> >,std::allocator<std::basic_string<char,std::char_traits<char>,std::allocator<char> > > >::~vector<std::basic_string<char,std::char_traits<char>,std::allocator<char> >,std::allocator<std::basic_string<char,std::char_traits<char>,std::allocator<char> > > >
$LN14@writeValue@3:

; 622  :       break;
; 623  :    }
; 624  : }

	mov	ecx, DWORD PTR __$EHRec$[ebp]
	mov	DWORD PTR fs:0, ecx
	pop	ecx
	mov	esp, ebp
	pop	ebp
	ret	4
	npad	3
$LN30@writeValue@3:
	DD	$LN13@writeValue@3
	DD	$LN12@writeValue@3
	DD	$LN11@writeValue@3
	DD	$LN10@writeValue@3
	DD	$LN9@writeValue@3
	DD	$LN8@writeValue@3
	DD	$LN7@writeValue@3
	DD	$LN6@writeValue@3
_TEXT	ENDS
;	COMDAT text$x
text$x	SEGMENT
__unwindfunclet$?writeValue@StyledStreamWriter@Json@@AAEXABVValue@2@@Z$0:
	lea	ecx, DWORD PTR $T63219[ebp]
	jmp	DWORD PTR __imp_??1?$basic_string@DU?$char_traits@D@std@@V?$allocator@D@2@@std@@QAE@XZ
__unwindfunclet$?writeValue@StyledStreamWriter@Json@@AAEXABVValue@2@@Z$1:
	lea	ecx, DWORD PTR $T63220[ebp]
	jmp	DWORD PTR __imp_??1?$basic_string@DU?$char_traits@D@std@@V?$allocator@D@2@@std@@QAE@XZ
__unwindfunclet$?writeValue@StyledStreamWriter@Json@@AAEXABVValue@2@@Z$2:
	lea	ecx, DWORD PTR $T63221[ebp]
	jmp	DWORD PTR __imp_??1?$basic_string@DU?$char_traits@D@std@@V?$allocator@D@2@@std@@QAE@XZ
__unwindfunclet$?writeValue@StyledStreamWriter@Json@@AAEXABVValue@2@@Z$3:
	lea	ecx, DWORD PTR $T63222[ebp]
	jmp	DWORD PTR __imp_??1?$basic_string@DU?$char_traits@D@std@@V?$allocator@D@2@@std@@QAE@XZ
__unwindfunclet$?writeValue@StyledStreamWriter@Json@@AAEXABVValue@2@@Z$4:
	lea	ecx, DWORD PTR $T63223[ebp]
	jmp	DWORD PTR __imp_??1?$basic_string@DU?$char_traits@D@std@@V?$allocator@D@2@@std@@QAE@XZ
__unwindfunclet$?writeValue@StyledStreamWriter@Json@@AAEXABVValue@2@@Z$5:
	lea	ecx, DWORD PTR $T63224[ebp]
	jmp	DWORD PTR __imp_??1?$basic_string@DU?$char_traits@D@std@@V?$allocator@D@2@@std@@QAE@XZ
__unwindfunclet$?writeValue@StyledStreamWriter@Json@@AAEXABVValue@2@@Z$6:
	lea	ecx, DWORD PTR _members$56525[ebp]
	jmp	??1?$vector@V?$basic_string@DU?$char_traits@D@std@@V?$allocator@D@2@@std@@V?$allocator@V?$basic_string@DU?$char_traits@D@std@@V?$allocator@D@2@@std@@@2@@std@@QAE@XZ ; std::vector<std::basic_string<char,std::char_traits<char>,std::allocator<char> >,std::allocator<std::basic_string<char,std::char_traits<char>,std::allocator<char> > > >::~vector<std::basic_string<char,std::char_traits<char>,std::allocator<char> >,std::allocator<std::basic_string<char,std::char_traits<char>,std::allocator<char> > > >
__unwindfunclet$?writeValue@StyledStreamWriter@Json@@AAEXABVValue@2@@Z$7:
	lea	ecx, DWORD PTR $T63225[ebp]
	jmp	DWORD PTR __imp_??1?$basic_string@DU?$char_traits@D@std@@V?$allocator@D@2@@std@@QAE@XZ
__unwindfunclet$?writeValue@StyledStreamWriter@Json@@AAEXABVValue@2@@Z$8:
	lea	ecx, DWORD PTR $T63226[ebp]
	jmp	DWORD PTR __imp_??1?$basic_string@DU?$char_traits@D@std@@V?$allocator@D@2@@std@@QAE@XZ
__unwindfunclet$?writeValue@StyledStreamWriter@Json@@AAEXABVValue@2@@Z$9:
	lea	ecx, DWORD PTR $T63227[ebp]
	jmp	DWORD PTR __imp_??1?$basic_string@DU?$char_traits@D@std@@V?$allocator@D@2@@std@@QAE@XZ
__unwindfunclet$?writeValue@StyledStreamWriter@Json@@AAEXABVValue@2@@Z$10:
	lea	ecx, DWORD PTR $T63229[ebp]
	jmp	DWORD PTR __imp_??1?$basic_string@DU?$char_traits@D@std@@V?$allocator@D@2@@std@@QAE@XZ
__ehhandler$?writeValue@StyledStreamWriter@Json@@AAEXABVValue@2@@Z:
	mov	edx, DWORD PTR [esp+8]
	lea	eax, DWORD PTR [edx+12]
	mov	ecx, DWORD PTR [edx-388]
	xor	ecx, eax
	call	@__security_check_cookie@4
	mov	eax, OFFSET __ehfuncinfo$?writeValue@StyledStreamWriter@Json@@AAEXABVValue@2@@Z
	jmp	___CxxFrameHandler3
text$x	ENDS
?writeValue@StyledStreamWriter@Json@@AAEXABVValue@2@@Z ENDP ; Json::StyledStreamWriter::writeValue
PUBLIC	?writeIndent@StyledStreamWriter@Json@@AAEXXZ	; Json::StyledStreamWriter::writeIndent
PUBLIC	?isMultineArray@StyledStreamWriter@Json@@AAE_NABVValue@2@@Z ; Json::StyledStreamWriter::isMultineArray
EXTRN	__imp_??$?6DU?$char_traits@D@std@@V?$allocator@D@1@@std@@YAAAV?$basic_ostream@DU?$char_traits@D@std@@@0@AAV10@ABV?$basic_string@DU?$char_traits@D@std@@V?$allocator@D@2@@0@@Z:PROC
;	COMDAT xdata$x
xdata$x	SEGMENT
__unwindtable$?writeArrayValue@StyledStreamWriter@Json@@AAEXABVValue@2@@Z DD 0ffffffffH
	DD	FLAT:__unwindfunclet$?writeArrayValue@StyledStreamWriter@Json@@AAEXABVValue@2@@Z$0
	DD	0ffffffffH
	DD	FLAT:__unwindfunclet$?writeArrayValue@StyledStreamWriter@Json@@AAEXABVValue@2@@Z$1
	DD	0ffffffffH
	DD	FLAT:__unwindfunclet$?writeArrayValue@StyledStreamWriter@Json@@AAEXABVValue@2@@Z$2
__ehfuncinfo$?writeArrayValue@StyledStreamWriter@Json@@AAEXABVValue@2@@Z DD 019930522H
	DD	03H
	DD	FLAT:__unwindtable$?writeArrayValue@StyledStreamWriter@Json@@AAEXABVValue@2@@Z
	DD	2 DUP(00H)
	DD	2 DUP(00H)
	DD	00H
	DD	01H
; Function compile flags: /Odtp
xdata$x	ENDS
;	COMDAT ?writeArrayValue@StyledStreamWriter@Json@@AAEXABVValue@2@@Z
_TEXT	SEGMENT
_this$ = -120						; size = 4
$T63252 = -116						; size = 28
$T63251 = -88						; size = 28
$T63250 = -60						; size = 28
_index$56564 = -32					; size = 4
_childValue$56557 = -28					; size = 4
_index$56553 = -24					; size = 4
_hasChildValue$56552 = -18				; size = 1
_isArrayMultiLine$56549 = -17				; size = 1
_size$ = -16						; size = 4
__$EHRec$ = -12						; size = 12
_value$ = 8						; size = 4
?writeArrayValue@StyledStreamWriter@Json@@AAEXABVValue@2@@Z PROC ; Json::StyledStreamWriter::writeArrayValue, COMDAT
; _this$ = ecx

; 629  : {

	push	ebp
	mov	ebp, esp
	push	-1
	push	__ehhandler$?writeArrayValue@StyledStreamWriter@Json@@AAEXABVValue@2@@Z
	mov	eax, DWORD PTR fs:0
	push	eax
	sub	esp, 108				; 0000006cH
	mov	eax, DWORD PTR ___security_cookie
	xor	eax, ebp
	push	eax
	lea	eax, DWORD PTR __$EHRec$[ebp]
	mov	DWORD PTR fs:0, eax
	mov	DWORD PTR _this$[ebp], ecx

; 630  :    unsigned size = value.size();

	mov	ecx, DWORD PTR _value$[ebp]
	call	?size@Value@Json@@QBEIXZ		; Json::Value::size
	mov	DWORD PTR _size$[ebp], eax

; 631  :    if ( size == 0 )

	cmp	DWORD PTR _size$[ebp], 0
	jne	SHORT $LN13@writeArray@2

; 632  :       pushValue( "[]" );

	push	OFFSET ??_C@_02GPECMEKF@?$FL?$FN?$AA@
	lea	ecx, DWORD PTR $T63250[ebp]
	call	DWORD PTR __imp_??0?$basic_string@DU?$char_traits@D@std@@V?$allocator@D@2@@std@@QAE@PBD@Z
	mov	DWORD PTR __$EHRec$[ebp+8], 0
	lea	eax, DWORD PTR $T63250[ebp]
	push	eax
	mov	ecx, DWORD PTR _this$[ebp]
	call	?pushValue@StyledStreamWriter@Json@@AAEXABV?$basic_string@DU?$char_traits@D@std@@V?$allocator@D@2@@std@@@Z ; Json::StyledStreamWriter::pushValue
	mov	DWORD PTR __$EHRec$[ebp+8], -1
	lea	ecx, DWORD PTR $T63250[ebp]
	call	DWORD PTR __imp_??1?$basic_string@DU?$char_traits@D@std@@V?$allocator@D@2@@std@@QAE@XZ

; 633  :    else

	jmp	$LN14@writeArray@2
$LN13@writeArray@2:

; 634  :    {
; 635  :       bool isArrayMultiLine = isMultineArray( value );

	mov	ecx, DWORD PTR _value$[ebp]
	push	ecx
	mov	ecx, DWORD PTR _this$[ebp]
	call	?isMultineArray@StyledStreamWriter@Json@@AAE_NABVValue@2@@Z ; Json::StyledStreamWriter::isMultineArray
	mov	BYTE PTR _isArrayMultiLine$56549[ebp], al

; 636  :       if ( isArrayMultiLine )

	movzx	edx, BYTE PTR _isArrayMultiLine$56549[ebp]
	test	edx, edx
	je	$LN11@writeArray@2

; 637  :       {
; 638  :          writeWithIndent( "[" );

	push	OFFSET ??_C@_01OHGJGJJP@?$FL?$AA@
	lea	ecx, DWORD PTR $T63251[ebp]
	call	DWORD PTR __imp_??0?$basic_string@DU?$char_traits@D@std@@V?$allocator@D@2@@std@@QAE@PBD@Z
	mov	DWORD PTR __$EHRec$[ebp+8], 1
	lea	eax, DWORD PTR $T63251[ebp]
	push	eax
	mov	ecx, DWORD PTR _this$[ebp]
	call	?writeWithIndent@StyledStreamWriter@Json@@AAEXABV?$basic_string@DU?$char_traits@D@std@@V?$allocator@D@2@@std@@@Z ; Json::StyledStreamWriter::writeWithIndent
	mov	DWORD PTR __$EHRec$[ebp+8], -1
	lea	ecx, DWORD PTR $T63251[ebp]
	call	DWORD PTR __imp_??1?$basic_string@DU?$char_traits@D@std@@V?$allocator@D@2@@std@@QAE@XZ

; 639  :          indent();

	mov	ecx, DWORD PTR _this$[ebp]
	call	?indent@StyledStreamWriter@Json@@AAEXXZ	; Json::StyledStreamWriter::indent

; 640  :          bool hasChildValue = !childValues_.empty();

	mov	ecx, DWORD PTR _this$[ebp]
	call	?empty@?$vector@V?$basic_string@DU?$char_traits@D@std@@V?$allocator@D@2@@std@@V?$allocator@V?$basic_string@DU?$char_traits@D@std@@V?$allocator@D@2@@std@@@2@@std@@QBE_NXZ ; std::vector<std::basic_string<char,std::char_traits<char>,std::allocator<char> >,std::allocator<std::basic_string<char,std::char_traits<char>,std::allocator<char> > > >::empty
	movzx	ecx, al
	neg	ecx
	sbb	ecx, ecx
	add	ecx, 1
	mov	BYTE PTR _hasChildValue$56552[ebp], cl

; 641  :          unsigned index =0;

	mov	DWORD PTR _index$56553[ebp], 0
$LN10@writeArray@2:

; 642  :          while ( true )

	mov	edx, 1
	test	edx, edx
	je	$LN9@writeArray@2

; 643  :          {
; 644  :             const Value &childValue = value[index];

	mov	eax, DWORD PTR _index$56553[ebp]
	push	eax
	mov	ecx, DWORD PTR _value$[ebp]
	call	??AValue@Json@@QBEABV01@I@Z		; Json::Value::operator[]
	mov	DWORD PTR _childValue$56557[ebp], eax

; 645  :             writeCommentBeforeValue( childValue );

	mov	ecx, DWORD PTR _childValue$56557[ebp]
	push	ecx
	mov	ecx, DWORD PTR _this$[ebp]
	call	?writeCommentBeforeValue@StyledStreamWriter@Json@@AAEXABVValue@2@@Z ; Json::StyledStreamWriter::writeCommentBeforeValue

; 646  :             if ( hasChildValue )

	movzx	edx, BYTE PTR _hasChildValue$56552[ebp]
	test	edx, edx
	je	SHORT $LN8@writeArray@2

; 647  :                writeWithIndent( childValues_[index] );

	mov	eax, DWORD PTR _index$56553[ebp]
	push	eax
	mov	ecx, DWORD PTR _this$[ebp]
	call	??A?$vector@V?$basic_string@DU?$char_traits@D@std@@V?$allocator@D@2@@std@@V?$allocator@V?$basic_string@DU?$char_traits@D@std@@V?$allocator@D@2@@std@@@2@@std@@QAEAAV?$basic_string@DU?$char_traits@D@std@@V?$allocator@D@2@@1@I@Z ; std::vector<std::basic_string<char,std::char_traits<char>,std::allocator<char> >,std::allocator<std::basic_string<char,std::char_traits<char>,std::allocator<char> > > >::operator[]
	push	eax
	mov	ecx, DWORD PTR _this$[ebp]
	call	?writeWithIndent@StyledStreamWriter@Json@@AAEXABV?$basic_string@DU?$char_traits@D@std@@V?$allocator@D@2@@std@@@Z ; Json::StyledStreamWriter::writeWithIndent

; 648  :             else

	jmp	SHORT $LN7@writeArray@2
$LN8@writeArray@2:

; 649  :             {
; 650  : 	       writeIndent();

	mov	ecx, DWORD PTR _this$[ebp]
	call	?writeIndent@StyledStreamWriter@Json@@AAEXXZ ; Json::StyledStreamWriter::writeIndent

; 651  :                writeValue( childValue );

	mov	ecx, DWORD PTR _childValue$56557[ebp]
	push	ecx
	mov	ecx, DWORD PTR _this$[ebp]
	call	?writeValue@StyledStreamWriter@Json@@AAEXABVValue@2@@Z ; Json::StyledStreamWriter::writeValue
$LN7@writeArray@2:

; 652  :             }
; 653  :             if ( ++index == size )

	mov	edx, DWORD PTR _index$56553[ebp]
	add	edx, 1
	mov	DWORD PTR _index$56553[ebp], edx
	mov	eax, DWORD PTR _index$56553[ebp]
	cmp	eax, DWORD PTR _size$[ebp]
	jne	SHORT $LN6@writeArray@2

; 654  :             {
; 655  :                writeCommentAfterValueOnSameLine( childValue );

	mov	ecx, DWORD PTR _childValue$56557[ebp]
	push	ecx
	mov	ecx, DWORD PTR _this$[ebp]
	call	?writeCommentAfterValueOnSameLine@StyledStreamWriter@Json@@AAEXABVValue@2@@Z ; Json::StyledStreamWriter::writeCommentAfterValueOnSameLine

; 656  :                break;

	jmp	SHORT $LN9@writeArray@2
$LN6@writeArray@2:

; 657  :             }
; 658  :             *document_ << ",";

	push	OFFSET ??_C@_01IHBHIGKO@?0?$AA@
	mov	edx, DWORD PTR _this$[ebp]
	mov	eax, DWORD PTR [edx+24]
	push	eax
	call	??$?6U?$char_traits@D@std@@@std@@YAAAV?$basic_ostream@DU?$char_traits@D@std@@@0@AAV10@PBD@Z ; std::operator<<<std::char_traits<char> >
	add	esp, 8

; 659  :             writeCommentAfterValueOnSameLine( childValue );

	mov	ecx, DWORD PTR _childValue$56557[ebp]
	push	ecx
	mov	ecx, DWORD PTR _this$[ebp]
	call	?writeCommentAfterValueOnSameLine@StyledStreamWriter@Json@@AAEXABVValue@2@@Z ; Json::StyledStreamWriter::writeCommentAfterValueOnSameLine

; 660  :          }

	jmp	$LN10@writeArray@2
$LN9@writeArray@2:

; 661  :          unindent();

	mov	ecx, DWORD PTR _this$[ebp]
	call	?unindent@StyledStreamWriter@Json@@AAEXXZ ; Json::StyledStreamWriter::unindent

; 662  :          writeWithIndent( "]" );

	push	OFFSET ??_C@_01LBDDMOBJ@?$FN?$AA@
	lea	ecx, DWORD PTR $T63252[ebp]
	call	DWORD PTR __imp_??0?$basic_string@DU?$char_traits@D@std@@V?$allocator@D@2@@std@@QAE@PBD@Z
	mov	DWORD PTR __$EHRec$[ebp+8], 2
	lea	edx, DWORD PTR $T63252[ebp]
	push	edx
	mov	ecx, DWORD PTR _this$[ebp]
	call	?writeWithIndent@StyledStreamWriter@Json@@AAEXABV?$basic_string@DU?$char_traits@D@std@@V?$allocator@D@2@@std@@@Z ; Json::StyledStreamWriter::writeWithIndent
	mov	DWORD PTR __$EHRec$[ebp+8], -1
	lea	ecx, DWORD PTR $T63252[ebp]
	call	DWORD PTR __imp_??1?$basic_string@DU?$char_traits@D@std@@V?$allocator@D@2@@std@@QAE@XZ

; 663  :       }
; 664  :       else // output on a single line

	jmp	SHORT $LN14@writeArray@2
$LN11@writeArray@2:

; 665  :       {
; 666  :          assert( childValues_.size() == size );
; 667  :          *document_ << "[ ";

	push	OFFSET ??_C@_02PFNDMDBO@?$FL?5?$AA@
	mov	eax, DWORD PTR _this$[ebp]
	mov	ecx, DWORD PTR [eax+24]
	push	ecx
	call	??$?6U?$char_traits@D@std@@@std@@YAAAV?$basic_ostream@DU?$char_traits@D@std@@@0@AAV10@PBD@Z ; std::operator<<<std::char_traits<char> >
	add	esp, 8

; 668  :          for ( unsigned index =0; index < size; ++index )

	mov	DWORD PTR _index$56564[ebp], 0
	jmp	SHORT $LN4@writeArray@2
$LN3@writeArray@2:
	mov	edx, DWORD PTR _index$56564[ebp]
	add	edx, 1
	mov	DWORD PTR _index$56564[ebp], edx
$LN4@writeArray@2:
	mov	eax, DWORD PTR _index$56564[ebp]
	cmp	eax, DWORD PTR _size$[ebp]
	jae	SHORT $LN2@writeArray@2

; 669  :          {
; 670  :             if ( index > 0 )

	cmp	DWORD PTR _index$56564[ebp], 0
	jbe	SHORT $LN1@writeArray@2

; 671  :                *document_ << ", ";

	push	OFFSET ??_C@_02KEGNLNML@?0?5?$AA@
	mov	ecx, DWORD PTR _this$[ebp]
	mov	edx, DWORD PTR [ecx+24]
	push	edx
	call	??$?6U?$char_traits@D@std@@@std@@YAAAV?$basic_ostream@DU?$char_traits@D@std@@@0@AAV10@PBD@Z ; std::operator<<<std::char_traits<char> >
	add	esp, 8
$LN1@writeArray@2:

; 672  :             *document_ << childValues_[index];

	mov	eax, DWORD PTR _index$56564[ebp]
	push	eax
	mov	ecx, DWORD PTR _this$[ebp]
	call	??A?$vector@V?$basic_string@DU?$char_traits@D@std@@V?$allocator@D@2@@std@@V?$allocator@V?$basic_string@DU?$char_traits@D@std@@V?$allocator@D@2@@std@@@2@@std@@QAEAAV?$basic_string@DU?$char_traits@D@std@@V?$allocator@D@2@@1@I@Z ; std::vector<std::basic_string<char,std::char_traits<char>,std::allocator<char> >,std::allocator<std::basic_string<char,std::char_traits<char>,std::allocator<char> > > >::operator[]
	push	eax
	mov	ecx, DWORD PTR _this$[ebp]
	mov	edx, DWORD PTR [ecx+24]
	push	edx
	call	DWORD PTR __imp_??$?6DU?$char_traits@D@std@@V?$allocator@D@1@@std@@YAAAV?$basic_ostream@DU?$char_traits@D@std@@@0@AAV10@ABV?$basic_string@DU?$char_traits@D@std@@V?$allocator@D@2@@0@@Z
	add	esp, 8

; 673  :          }

	jmp	SHORT $LN3@writeArray@2
$LN2@writeArray@2:

; 674  :          *document_ << " ]";

	push	OFFSET ??_C@_02DHOGEDBE@?5?$FN?$AA@
	mov	eax, DWORD PTR _this$[ebp]
	mov	ecx, DWORD PTR [eax+24]
	push	ecx
	call	??$?6U?$char_traits@D@std@@@std@@YAAAV?$basic_ostream@DU?$char_traits@D@std@@@0@AAV10@PBD@Z ; std::operator<<<std::char_traits<char> >
	add	esp, 8
$LN14@writeArray@2:

; 675  :       }
; 676  :    }
; 677  : }

	mov	ecx, DWORD PTR __$EHRec$[ebp]
	mov	DWORD PTR fs:0, ecx
	pop	ecx
	mov	esp, ebp
	pop	ebp
	ret	4
_TEXT	ENDS
;	COMDAT text$x
text$x	SEGMENT
__unwindfunclet$?writeArrayValue@StyledStreamWriter@Json@@AAEXABVValue@2@@Z$0:
	lea	ecx, DWORD PTR $T63250[ebp]
	jmp	DWORD PTR __imp_??1?$basic_string@DU?$char_traits@D@std@@V?$allocator@D@2@@std@@QAE@XZ
__unwindfunclet$?writeArrayValue@StyledStreamWriter@Json@@AAEXABVValue@2@@Z$1:
	lea	ecx, DWORD PTR $T63251[ebp]
	jmp	DWORD PTR __imp_??1?$basic_string@DU?$char_traits@D@std@@V?$allocator@D@2@@std@@QAE@XZ
__unwindfunclet$?writeArrayValue@StyledStreamWriter@Json@@AAEXABVValue@2@@Z$2:
	lea	ecx, DWORD PTR $T63252[ebp]
	jmp	DWORD PTR __imp_??1?$basic_string@DU?$char_traits@D@std@@V?$allocator@D@2@@std@@QAE@XZ
__ehhandler$?writeArrayValue@StyledStreamWriter@Json@@AAEXABVValue@2@@Z:
	mov	edx, DWORD PTR [esp+8]
	lea	eax, DWORD PTR [edx+12]
	mov	ecx, DWORD PTR [edx-112]
	xor	ecx, eax
	call	@__security_check_cookie@4
	mov	eax, OFFSET __ehfuncinfo$?writeArrayValue@StyledStreamWriter@Json@@AAEXABVValue@2@@Z
	jmp	___CxxFrameHandler3
text$x	ENDS
?writeArrayValue@StyledStreamWriter@Json@@AAEXABVValue@2@@Z ENDP ; Json::StyledStreamWriter::writeArrayValue
PUBLIC	?hasCommentForValue@StyledStreamWriter@Json@@AAE_NABVValue@2@@Z ; Json::StyledStreamWriter::hasCommentForValue
; Function compile flags: /Odtp
;	COMDAT ?isMultineArray@StyledStreamWriter@Json@@AAE_NABVValue@2@@Z
_TEXT	SEGMENT
tv166 = -40						; size = 4
tv159 = -36						; size = 4
tv92 = -32						; size = 4
_this$ = -28						; size = 4
_index$56582 = -24					; size = 4
_lineLength$56581 = -20					; size = 4
_childValue$56579 = -16					; size = 4
_index$56575 = -12					; size = 4
_size$ = -8						; size = 4
_isMultiLine$ = -1					; size = 1
_value$ = 8						; size = 4
?isMultineArray@StyledStreamWriter@Json@@AAE_NABVValue@2@@Z PROC ; Json::StyledStreamWriter::isMultineArray, COMDAT
; _this$ = ecx

; 682  : {

	push	ebp
	mov	ebp, esp
	sub	esp, 40					; 00000028H
	mov	DWORD PTR _this$[ebp], ecx

; 683  :    int size = value.size();

	mov	ecx, DWORD PTR _value$[ebp]
	call	?size@Value@Json@@QBEIXZ		; Json::Value::size
	mov	DWORD PTR _size$[ebp], eax

; 684  :    bool isMultiLine = size*3 >= rightMargin_ ;

	mov	eax, DWORD PTR _size$[ebp]
	imul	eax, 3
	mov	ecx, DWORD PTR _this$[ebp]
	xor	edx, edx
	cmp	eax, DWORD PTR [ecx+56]
	setge	dl
	mov	BYTE PTR _isMultiLine$[ebp], dl

; 685  :    childValues_.clear();

	mov	ecx, DWORD PTR _this$[ebp]
	call	?clear@?$vector@V?$basic_string@DU?$char_traits@D@std@@V?$allocator@D@2@@std@@V?$allocator@V?$basic_string@DU?$char_traits@D@std@@V?$allocator@D@2@@std@@@2@@std@@QAEXXZ ; std::vector<std::basic_string<char,std::char_traits<char>,std::allocator<char> >,std::allocator<std::basic_string<char,std::char_traits<char>,std::allocator<char> > > >::clear

; 686  :    for ( int index =0; index < size  &&  !isMultiLine; ++index )

	mov	DWORD PTR _index$56575[ebp], 0
	jmp	SHORT $LN7@isMultineA@2
$LN6@isMultineA@2:
	mov	eax, DWORD PTR _index$56575[ebp]
	add	eax, 1
	mov	DWORD PTR _index$56575[ebp], eax
$LN7@isMultineA@2:
	mov	ecx, DWORD PTR _index$56575[ebp]
	cmp	ecx, DWORD PTR _size$[ebp]
	jge	SHORT $LN5@isMultineA@2
	movzx	edx, BYTE PTR _isMultiLine$[ebp]
	test	edx, edx
	jne	SHORT $LN5@isMultineA@2

; 687  :    {
; 688  :       const Value &childValue = value[index];

	mov	eax, DWORD PTR _index$56575[ebp]
	push	eax
	mov	ecx, DWORD PTR _value$[ebp]
	call	??AValue@Json@@QBEABV01@I@Z		; Json::Value::operator[]
	mov	DWORD PTR _childValue$56579[ebp], eax

; 689  :       isMultiLine = isMultiLine  ||
; 690  :                      ( (childValue.isArray()  ||  childValue.isObject())  &&  
; 691  :                         childValue.size() > 0 );

	movzx	ecx, BYTE PTR _isMultiLine$[ebp]
	test	ecx, ecx
	jne	SHORT $LN12@isMultineA@2
	mov	ecx, DWORD PTR _childValue$56579[ebp]
	call	?isArray@Value@Json@@QBE_NXZ		; Json::Value::isArray
	movzx	edx, al
	test	edx, edx
	jne	SHORT $LN10@isMultineA@2
	mov	ecx, DWORD PTR _childValue$56579[ebp]
	call	?isObject@Value@Json@@QBE_NXZ		; Json::Value::isObject
	movzx	eax, al
	test	eax, eax
	je	SHORT $LN11@isMultineA@2
$LN10@isMultineA@2:
	mov	ecx, DWORD PTR _childValue$56579[ebp]
	call	?size@Value@Json@@QBEIXZ		; Json::Value::size
	test	eax, eax
	ja	SHORT $LN12@isMultineA@2
$LN11@isMultineA@2:
	mov	DWORD PTR tv92[ebp], 0
	jmp	SHORT $LN13@isMultineA@2
$LN12@isMultineA@2:
	mov	DWORD PTR tv92[ebp], 1
$LN13@isMultineA@2:
	mov	cl, BYTE PTR tv92[ebp]
	mov	BYTE PTR _isMultiLine$[ebp], cl

; 692  :    }

	jmp	SHORT $LN6@isMultineA@2
$LN5@isMultineA@2:

; 693  :    if ( !isMultiLine ) // check if line length > max line length

	movzx	edx, BYTE PTR _isMultiLine$[ebp]
	test	edx, edx
	jne	$LN4@isMultineA@2

; 694  :    {
; 695  :       childValues_.reserve( size );

	mov	eax, DWORD PTR _size$[ebp]
	push	eax
	mov	ecx, DWORD PTR _this$[ebp]
	call	?reserve@?$vector@V?$basic_string@DU?$char_traits@D@std@@V?$allocator@D@2@@std@@V?$allocator@V?$basic_string@DU?$char_traits@D@std@@V?$allocator@D@2@@std@@@2@@std@@QAEXI@Z ; std::vector<std::basic_string<char,std::char_traits<char>,std::allocator<char> >,std::allocator<std::basic_string<char,std::char_traits<char>,std::allocator<char> > > >::reserve

; 696  :       addChildValues_ = true;

	mov	ecx, DWORD PTR _this$[ebp]
	mov	BYTE PTR [ecx+88], 1

; 697  :       int lineLength = 4 + (size-1)*2; // '[ ' + ', '*n + ' ]'

	mov	edx, DWORD PTR _size$[ebp]
	lea	eax, DWORD PTR [edx+edx+2]
	mov	DWORD PTR _lineLength$56581[ebp], eax

; 698  :       for ( int index =0; index < size  &&  !isMultiLine; ++index )

	mov	DWORD PTR _index$56582[ebp], 0
	jmp	SHORT $LN3@isMultineA@2
$LN2@isMultineA@2:
	mov	ecx, DWORD PTR _index$56582[ebp]
	add	ecx, 1
	mov	DWORD PTR _index$56582[ebp], ecx
$LN3@isMultineA@2:
	mov	edx, DWORD PTR _index$56582[ebp]
	cmp	edx, DWORD PTR _size$[ebp]
	jge	SHORT $LN1@isMultineA@2
	movzx	eax, BYTE PTR _isMultiLine$[ebp]
	test	eax, eax
	jne	SHORT $LN1@isMultineA@2

; 699  :       {
; 700  :          writeValue( value[index] );

	mov	ecx, DWORD PTR _index$56582[ebp]
	push	ecx
	mov	ecx, DWORD PTR _value$[ebp]
	call	??AValue@Json@@QBEABV01@I@Z		; Json::Value::operator[]
	push	eax
	mov	ecx, DWORD PTR _this$[ebp]
	call	?writeValue@StyledStreamWriter@Json@@AAEXABVValue@2@@Z ; Json::StyledStreamWriter::writeValue

; 701  :          lineLength += int( childValues_[index].length() );

	mov	edx, DWORD PTR _index$56582[ebp]
	push	edx
	mov	ecx, DWORD PTR _this$[ebp]
	call	??A?$vector@V?$basic_string@DU?$char_traits@D@std@@V?$allocator@D@2@@std@@V?$allocator@V?$basic_string@DU?$char_traits@D@std@@V?$allocator@D@2@@std@@@2@@std@@QAEAAV?$basic_string@DU?$char_traits@D@std@@V?$allocator@D@2@@1@I@Z ; std::vector<std::basic_string<char,std::char_traits<char>,std::allocator<char> >,std::allocator<std::basic_string<char,std::char_traits<char>,std::allocator<char> > > >::operator[]
	mov	ecx, eax
	call	DWORD PTR __imp_?length@?$basic_string@DU?$char_traits@D@std@@V?$allocator@D@2@@std@@QBEIXZ
	add	eax, DWORD PTR _lineLength$56581[ebp]
	mov	DWORD PTR _lineLength$56581[ebp], eax

; 702  :          isMultiLine = isMultiLine  &&  hasCommentForValue( value[index] );

	movzx	eax, BYTE PTR _isMultiLine$[ebp]
	test	eax, eax
	je	SHORT $LN14@isMultineA@2
	mov	ecx, DWORD PTR _index$56582[ebp]
	push	ecx
	mov	ecx, DWORD PTR _value$[ebp]
	call	??AValue@Json@@QBEABV01@I@Z		; Json::Value::operator[]
	push	eax
	mov	ecx, DWORD PTR _this$[ebp]
	call	?hasCommentForValue@StyledStreamWriter@Json@@AAE_NABVValue@2@@Z ; Json::StyledStreamWriter::hasCommentForValue
	movzx	edx, al
	test	edx, edx
	je	SHORT $LN14@isMultineA@2
	mov	DWORD PTR tv159[ebp], 1
	jmp	SHORT $LN15@isMultineA@2
$LN14@isMultineA@2:
	mov	DWORD PTR tv159[ebp], 0
$LN15@isMultineA@2:
	mov	al, BYTE PTR tv159[ebp]
	mov	BYTE PTR _isMultiLine$[ebp], al

; 703  :       }

	jmp	$LN2@isMultineA@2
$LN1@isMultineA@2:

; 704  :       addChildValues_ = false;

	mov	ecx, DWORD PTR _this$[ebp]
	mov	BYTE PTR [ecx+88], 0

; 705  :       isMultiLine = isMultiLine  ||  lineLength >= rightMargin_;

	movzx	edx, BYTE PTR _isMultiLine$[ebp]
	test	edx, edx
	jne	SHORT $LN16@isMultineA@2
	mov	eax, DWORD PTR _this$[ebp]
	mov	ecx, DWORD PTR _lineLength$56581[ebp]
	cmp	ecx, DWORD PTR [eax+56]
	jge	SHORT $LN16@isMultineA@2
	mov	DWORD PTR tv166[ebp], 0
	jmp	SHORT $LN17@isMultineA@2
$LN16@isMultineA@2:
	mov	DWORD PTR tv166[ebp], 1
$LN17@isMultineA@2:
	mov	dl, BYTE PTR tv166[ebp]
	mov	BYTE PTR _isMultiLine$[ebp], dl
$LN4@isMultineA@2:

; 706  :    }
; 707  :    return isMultiLine;

	mov	al, BYTE PTR _isMultiLine$[ebp]

; 708  : }

	mov	esp, ebp
	pop	ebp
	ret	4
?isMultineArray@StyledStreamWriter@Json@@AAE_NABVValue@2@@Z ENDP ; Json::StyledStreamWriter::isMultineArray
; Function compile flags: /Odtp
_TEXT	ENDS
;	COMDAT ?pushValue@StyledStreamWriter@Json@@AAEXABV?$basic_string@DU?$char_traits@D@std@@V?$allocator@D@2@@std@@@Z
_TEXT	SEGMENT
_this$ = -4						; size = 4
_value$ = 8						; size = 4
?pushValue@StyledStreamWriter@Json@@AAEXABV?$basic_string@DU?$char_traits@D@std@@V?$allocator@D@2@@std@@@Z PROC ; Json::StyledStreamWriter::pushValue, COMDAT
; _this$ = ecx

; 713  : {

	push	ebp
	mov	ebp, esp
	push	ecx
	mov	DWORD PTR _this$[ebp], ecx

; 714  :    if ( addChildValues_ )

	mov	eax, DWORD PTR _this$[ebp]
	movzx	ecx, BYTE PTR [eax+88]
	test	ecx, ecx
	je	SHORT $LN2@pushValue@2

; 715  :       childValues_.push_back( value );

	mov	edx, DWORD PTR _value$[ebp]
	push	edx
	mov	ecx, DWORD PTR _this$[ebp]
	call	?push_back@?$vector@V?$basic_string@DU?$char_traits@D@std@@V?$allocator@D@2@@std@@V?$allocator@V?$basic_string@DU?$char_traits@D@std@@V?$allocator@D@2@@std@@@2@@std@@QAEXABV?$basic_string@DU?$char_traits@D@std@@V?$allocator@D@2@@2@@Z ; std::vector<std::basic_string<char,std::char_traits<char>,std::allocator<char> >,std::allocator<std::basic_string<char,std::char_traits<char>,std::allocator<char> > > >::push_back

; 716  :    else

	jmp	SHORT $LN3@pushValue@2
$LN2@pushValue@2:

; 717  :       *document_ << value;

	mov	eax, DWORD PTR _value$[ebp]
	push	eax
	mov	ecx, DWORD PTR _this$[ebp]
	mov	edx, DWORD PTR [ecx+24]
	push	edx
	call	DWORD PTR __imp_??$?6DU?$char_traits@D@std@@V?$allocator@D@1@@std@@YAAAV?$basic_ostream@DU?$char_traits@D@std@@@0@AAV10@ABV?$basic_string@DU?$char_traits@D@std@@V?$allocator@D@2@@0@@Z
	add	esp, 8
$LN3@pushValue@2:

; 718  : }

	mov	esp, ebp
	pop	ebp
	ret	4
?pushValue@StyledStreamWriter@Json@@AAEXABV?$basic_string@DU?$char_traits@D@std@@V?$allocator@D@2@@std@@@Z ENDP ; Json::StyledStreamWriter::pushValue
_TEXT	ENDS
PUBLIC	??$?6U?$char_traits@D@std@@@std@@YAAAV?$basic_ostream@DU?$char_traits@D@std@@@0@AAV10@D@Z ; std::operator<<<std::char_traits<char> >
; Function compile flags: /Odtp
;	COMDAT ?writeIndent@StyledStreamWriter@Json@@AAEXXZ
_TEXT	SEGMENT
_this$ = -4						; size = 4
?writeIndent@StyledStreamWriter@Json@@AAEXXZ PROC	; Json::StyledStreamWriter::writeIndent, COMDAT
; _this$ = ecx

; 723  : {

	push	ebp
	mov	ebp, esp
	push	ecx
	mov	DWORD PTR _this$[ebp], ecx

; 724  :   /*
; 725  :     Some comments in this method would have been nice. ;-)
; 726  : 
; 727  :    if ( !document_.empty() )
; 728  :    {
; 729  :       char last = document_[document_.length()-1];
; 730  :       if ( last == ' ' )     // already indented
; 731  :          return;
; 732  :       if ( last != '\n' )    // Comments may add new-line
; 733  :          *document_ << '\n';
; 734  :    }
; 735  :   */
; 736  :    *document_ << '\n' << indentString_;

	mov	eax, DWORD PTR _this$[ebp]
	add	eax, 28					; 0000001cH
	push	eax
	push	10					; 0000000aH
	mov	ecx, DWORD PTR _this$[ebp]
	mov	edx, DWORD PTR [ecx+24]
	push	edx
	call	??$?6U?$char_traits@D@std@@@std@@YAAAV?$basic_ostream@DU?$char_traits@D@std@@@0@AAV10@D@Z ; std::operator<<<std::char_traits<char> >
	add	esp, 8
	push	eax
	call	DWORD PTR __imp_??$?6DU?$char_traits@D@std@@V?$allocator@D@1@@std@@YAAAV?$basic_ostream@DU?$char_traits@D@std@@@0@AAV10@ABV?$basic_string@DU?$char_traits@D@std@@V?$allocator@D@2@@0@@Z
	add	esp, 8

; 737  : }

	mov	esp, ebp
	pop	ebp
	ret	0
?writeIndent@StyledStreamWriter@Json@@AAEXXZ ENDP	; Json::StyledStreamWriter::writeIndent
; Function compile flags: /Odtp
_TEXT	ENDS
;	COMDAT ?writeWithIndent@StyledStreamWriter@Json@@AAEXABV?$basic_string@DU?$char_traits@D@std@@V?$allocator@D@2@@std@@@Z
_TEXT	SEGMENT
_this$ = -4						; size = 4
_value$ = 8						; size = 4
?writeWithIndent@StyledStreamWriter@Json@@AAEXABV?$basic_string@DU?$char_traits@D@std@@V?$allocator@D@2@@std@@@Z PROC ; Json::StyledStreamWriter::writeWithIndent, COMDAT
; _this$ = ecx

; 742  : {

	push	ebp
	mov	ebp, esp
	push	ecx
	mov	DWORD PTR _this$[ebp], ecx

; 743  :    writeIndent();

	mov	ecx, DWORD PTR _this$[ebp]
	call	?writeIndent@StyledStreamWriter@Json@@AAEXXZ ; Json::StyledStreamWriter::writeIndent

; 744  :    *document_ << value;

	mov	eax, DWORD PTR _value$[ebp]
	push	eax
	mov	ecx, DWORD PTR _this$[ebp]
	mov	edx, DWORD PTR [ecx+24]
	push	edx
	call	DWORD PTR __imp_??$?6DU?$char_traits@D@std@@V?$allocator@D@1@@std@@YAAAV?$basic_ostream@DU?$char_traits@D@std@@@0@AAV10@ABV?$basic_string@DU?$char_traits@D@std@@V?$allocator@D@2@@0@@Z
	add	esp, 8

; 745  : }

	mov	esp, ebp
	pop	ebp
	ret	4
?writeWithIndent@StyledStreamWriter@Json@@AAEXABV?$basic_string@DU?$char_traits@D@std@@V?$allocator@D@2@@std@@@Z ENDP ; Json::StyledStreamWriter::writeWithIndent
; Function compile flags: /Odtp
_TEXT	ENDS
;	COMDAT ?indent@StyledStreamWriter@Json@@AAEXXZ
_TEXT	SEGMENT
_this$ = -4						; size = 4
?indent@StyledStreamWriter@Json@@AAEXXZ PROC		; Json::StyledStreamWriter::indent, COMDAT
; _this$ = ecx

; 750  : {

	push	ebp
	mov	ebp, esp
	push	ecx
	mov	DWORD PTR _this$[ebp], ecx

; 751  :    indentString_ += indentation_;

	mov	eax, DWORD PTR _this$[ebp]
	add	eax, 60					; 0000003cH
	push	eax
	mov	ecx, DWORD PTR _this$[ebp]
	add	ecx, 28					; 0000001cH
	call	DWORD PTR __imp_??Y?$basic_string@DU?$char_traits@D@std@@V?$allocator@D@2@@std@@QAEAAV01@ABV01@@Z

; 752  : }

	mov	esp, ebp
	pop	ebp
	ret	0
?indent@StyledStreamWriter@Json@@AAEXXZ ENDP		; Json::StyledStreamWriter::indent
; Function compile flags: /Odtp
_TEXT	ENDS
;	COMDAT ?unindent@StyledStreamWriter@Json@@AAEXXZ
_TEXT	SEGMENT
_this$ = -4						; size = 4
?unindent@StyledStreamWriter@Json@@AAEXXZ PROC		; Json::StyledStreamWriter::unindent, COMDAT
; _this$ = ecx

; 757  : {

	push	ebp
	mov	ebp, esp
	push	ecx
	push	esi
	mov	DWORD PTR _this$[ebp], ecx

; 758  :    assert( indentString_.size() >= indentation_.size() );
; 759  :    indentString_.resize( indentString_.size() - indentation_.size() );

	mov	ecx, DWORD PTR _this$[ebp]
	add	ecx, 28					; 0000001cH
	call	DWORD PTR __imp_?size@?$basic_string@DU?$char_traits@D@std@@V?$allocator@D@2@@std@@QBEIXZ
	mov	esi, eax
	mov	ecx, DWORD PTR _this$[ebp]
	add	ecx, 60					; 0000003cH
	call	DWORD PTR __imp_?size@?$basic_string@DU?$char_traits@D@std@@V?$allocator@D@2@@std@@QBEIXZ
	sub	esi, eax
	push	esi
	mov	ecx, DWORD PTR _this$[ebp]
	add	ecx, 28					; 0000001cH
	call	DWORD PTR __imp_?resize@?$basic_string@DU?$char_traits@D@std@@V?$allocator@D@2@@std@@QAEXI@Z

; 760  : }

	pop	esi
	mov	esp, ebp
	pop	ebp
	ret	0
?unindent@StyledStreamWriter@Json@@AAEXXZ ENDP		; Json::StyledStreamWriter::unindent
_TEXT	ENDS
PUBLIC	?normalizeEOL@StyledStreamWriter@Json@@CA?AV?$basic_string@DU?$char_traits@D@std@@V?$allocator@D@2@@std@@ABV34@@Z ; Json::StyledStreamWriter::normalizeEOL
;	COMDAT xdata$x
xdata$x	SEGMENT
__unwindtable$?writeCommentBeforeValue@StyledStreamWriter@Json@@AAEXABVValue@2@@Z DD 0ffffffffH
	DD	FLAT:__unwindfunclet$?writeCommentBeforeValue@StyledStreamWriter@Json@@AAEXABVValue@2@@Z$0
	DD	00H
	DD	FLAT:__unwindfunclet$?writeCommentBeforeValue@StyledStreamWriter@Json@@AAEXABVValue@2@@Z$1
__ehfuncinfo$?writeCommentBeforeValue@StyledStreamWriter@Json@@AAEXABVValue@2@@Z DD 019930522H
	DD	02H
	DD	FLAT:__unwindtable$?writeCommentBeforeValue@StyledStreamWriter@Json@@AAEXABVValue@2@@Z
	DD	2 DUP(00H)
	DD	2 DUP(00H)
	DD	00H
	DD	01H
; Function compile flags: /Odtp
xdata$x	ENDS
;	COMDAT ?writeCommentBeforeValue@StyledStreamWriter@Json@@AAEXABVValue@2@@Z
_TEXT	SEGMENT
tv89 = -88						; size = 4
tv91 = -84						; size = 4
tv87 = -80						; size = 4
tv90 = -76						; size = 4
_this$ = -72						; size = 4
$T63285 = -68						; size = 28
$T63284 = -40						; size = 28
__$EHRec$ = -12						; size = 12
_root$ = 8						; size = 4
?writeCommentBeforeValue@StyledStreamWriter@Json@@AAEXABVValue@2@@Z PROC ; Json::StyledStreamWriter::writeCommentBeforeValue, COMDAT
; _this$ = ecx

; 765  : {

	push	ebp
	mov	ebp, esp
	push	-1
	push	__ehhandler$?writeCommentBeforeValue@StyledStreamWriter@Json@@AAEXABVValue@2@@Z
	mov	eax, DWORD PTR fs:0
	push	eax
	sub	esp, 76					; 0000004cH
	mov	eax, DWORD PTR ___security_cookie
	xor	eax, ebp
	push	eax
	lea	eax, DWORD PTR __$EHRec$[ebp]
	mov	DWORD PTR fs:0, eax
	mov	DWORD PTR _this$[ebp], ecx

; 766  :    if ( !root.hasComment( commentBefore ) )

	push	0
	mov	ecx, DWORD PTR _root$[ebp]
	call	?hasComment@Value@Json@@QBE_NW4CommentPlacement@2@@Z ; Json::Value::hasComment
	movzx	eax, al
	test	eax, eax
	jne	SHORT $LN1@writeComme@3

; 767  :       return;

	jmp	$LN2@writeComme@3
$LN1@writeComme@3:

; 768  :    *document_ << normalizeEOL( root.getComment( commentBefore ) );

	push	0
	lea	ecx, DWORD PTR $T63284[ebp]
	push	ecx
	mov	ecx, DWORD PTR _root$[ebp]
	call	?getComment@Value@Json@@QBE?AV?$basic_string@DU?$char_traits@D@std@@V?$allocator@D@2@@std@@W4CommentPlacement@2@@Z ; Json::Value::getComment
	mov	DWORD PTR tv90[ebp], eax
	mov	edx, DWORD PTR tv90[ebp]
	mov	DWORD PTR tv87[ebp], edx
	mov	DWORD PTR __$EHRec$[ebp+8], 0
	mov	eax, DWORD PTR tv87[ebp]
	push	eax
	lea	ecx, DWORD PTR $T63285[ebp]
	push	ecx
	call	?normalizeEOL@StyledStreamWriter@Json@@CA?AV?$basic_string@DU?$char_traits@D@std@@V?$allocator@D@2@@std@@ABV34@@Z ; Json::StyledStreamWriter::normalizeEOL
	add	esp, 8
	mov	DWORD PTR tv91[ebp], eax
	mov	edx, DWORD PTR tv91[ebp]
	mov	DWORD PTR tv89[ebp], edx
	mov	BYTE PTR __$EHRec$[ebp+8], 1
	mov	eax, DWORD PTR tv89[ebp]
	push	eax
	mov	ecx, DWORD PTR _this$[ebp]
	mov	edx, DWORD PTR [ecx+24]
	push	edx
	call	DWORD PTR __imp_??$?6DU?$char_traits@D@std@@V?$allocator@D@1@@std@@YAAAV?$basic_ostream@DU?$char_traits@D@std@@@0@AAV10@ABV?$basic_string@DU?$char_traits@D@std@@V?$allocator@D@2@@0@@Z
	add	esp, 8
	mov	BYTE PTR __$EHRec$[ebp+8], 0
	lea	ecx, DWORD PTR $T63285[ebp]
	call	DWORD PTR __imp_??1?$basic_string@DU?$char_traits@D@std@@V?$allocator@D@2@@std@@QAE@XZ
	mov	DWORD PTR __$EHRec$[ebp+8], -1
	lea	ecx, DWORD PTR $T63284[ebp]
	call	DWORD PTR __imp_??1?$basic_string@DU?$char_traits@D@std@@V?$allocator@D@2@@std@@QAE@XZ

; 769  :    *document_ << "\n";

	push	OFFSET ??_C@_01EEMJAFIK@?6?$AA@
	mov	eax, DWORD PTR _this$[ebp]
	mov	ecx, DWORD PTR [eax+24]
	push	ecx
	call	??$?6U?$char_traits@D@std@@@std@@YAAAV?$basic_ostream@DU?$char_traits@D@std@@@0@AAV10@PBD@Z ; std::operator<<<std::char_traits<char> >
	add	esp, 8
$LN2@writeComme@3:

; 770  : }

	mov	ecx, DWORD PTR __$EHRec$[ebp]
	mov	DWORD PTR fs:0, ecx
	pop	ecx
	mov	esp, ebp
	pop	ebp
	ret	4
_TEXT	ENDS
;	COMDAT text$x
text$x	SEGMENT
__unwindfunclet$?writeCommentBeforeValue@StyledStreamWriter@Json@@AAEXABVValue@2@@Z$0:
	lea	ecx, DWORD PTR $T63284[ebp]
	jmp	DWORD PTR __imp_??1?$basic_string@DU?$char_traits@D@std@@V?$allocator@D@2@@std@@QAE@XZ
__unwindfunclet$?writeCommentBeforeValue@StyledStreamWriter@Json@@AAEXABVValue@2@@Z$1:
	lea	ecx, DWORD PTR $T63285[ebp]
	jmp	DWORD PTR __imp_??1?$basic_string@DU?$char_traits@D@std@@V?$allocator@D@2@@std@@QAE@XZ
__ehhandler$?writeCommentBeforeValue@StyledStreamWriter@Json@@AAEXABVValue@2@@Z:
	mov	edx, DWORD PTR [esp+8]
	lea	eax, DWORD PTR [edx+12]
	mov	ecx, DWORD PTR [edx-80]
	xor	ecx, eax
	call	@__security_check_cookie@4
	mov	eax, OFFSET __ehfuncinfo$?writeCommentBeforeValue@StyledStreamWriter@Json@@AAEXABVValue@2@@Z
	jmp	___CxxFrameHandler3
text$x	ENDS
?writeCommentBeforeValue@StyledStreamWriter@Json@@AAEXABVValue@2@@Z ENDP ; Json::StyledStreamWriter::writeCommentBeforeValue
;	COMDAT xdata$x
xdata$x	SEGMENT
__ehfuncinfo$?writeCommentAfterValueOnSameLine@StyledStreamWriter@Json@@AAEXABVValue@2@@Z DD 019930522H
	DD	05H
	DD	FLAT:__unwindtable$?writeCommentAfterValueOnSameLine@StyledStreamWriter@Json@@AAEXABVValue@2@@Z
	DD	2 DUP(00H)
	DD	2 DUP(00H)
	DD	00H
	DD	01H
__unwindtable$?writeCommentAfterValueOnSameLine@StyledStreamWriter@Json@@AAEXABVValue@2@@Z DD 0ffffffffH
	DD	FLAT:__unwindfunclet$?writeCommentAfterValueOnSameLine@StyledStreamWriter@Json@@AAEXABVValue@2@@Z$0
	DD	00H
	DD	FLAT:__unwindfunclet$?writeCommentAfterValueOnSameLine@StyledStreamWriter@Json@@AAEXABVValue@2@@Z$1
	DD	01H
	DD	FLAT:__unwindfunclet$?writeCommentAfterValueOnSameLine@StyledStreamWriter@Json@@AAEXABVValue@2@@Z$2
	DD	0ffffffffH
	DD	FLAT:__unwindfunclet$?writeCommentAfterValueOnSameLine@StyledStreamWriter@Json@@AAEXABVValue@2@@Z$3
	DD	03H
	DD	FLAT:__unwindfunclet$?writeCommentAfterValueOnSameLine@StyledStreamWriter@Json@@AAEXABVValue@2@@Z$4
; Function compile flags: /Odtp
xdata$x	ENDS
;	COMDAT ?writeCommentAfterValueOnSameLine@StyledStreamWriter@Json@@AAEXABVValue@2@@Z
_TEXT	SEGMENT
tv155 = -196						; size = 4
tv160 = -192						; size = 4
tv153 = -188						; size = 4
tv159 = -184						; size = 4
tv151 = -180						; size = 4
tv158 = -176						; size = 4
tv149 = -172						; size = 4
tv157 = -168						; size = 4
tv147 = -164						; size = 4
tv156 = -160						; size = 4
_this$ = -156						; size = 4
$T63300 = -152						; size = 28
$T63299 = -124						; size = 28
$T63298 = -96						; size = 28
$T63297 = -68						; size = 28
$T63296 = -40						; size = 28
__$EHRec$ = -12						; size = 12
_root$ = 8						; size = 4
?writeCommentAfterValueOnSameLine@StyledStreamWriter@Json@@AAEXABVValue@2@@Z PROC ; Json::StyledStreamWriter::writeCommentAfterValueOnSameLine, COMDAT
; _this$ = ecx

; 775  : {

	push	ebp
	mov	ebp, esp
	push	-1
	push	__ehhandler$?writeCommentAfterValueOnSameLine@StyledStreamWriter@Json@@AAEXABVValue@2@@Z
	mov	eax, DWORD PTR fs:0
	push	eax
	sub	esp, 184				; 000000b8H
	mov	eax, DWORD PTR ___security_cookie
	xor	eax, ebp
	push	eax
	lea	eax, DWORD PTR __$EHRec$[ebp]
	mov	DWORD PTR fs:0, eax
	mov	DWORD PTR _this$[ebp], ecx

; 776  :    if ( root.hasComment( commentAfterOnSameLine ) )

	push	1
	mov	ecx, DWORD PTR _root$[ebp]
	call	?hasComment@Value@Json@@QBE_NW4CommentPlacement@2@@Z ; Json::Value::hasComment
	movzx	eax, al
	test	eax, eax
	je	$LN2@writeComme@4

; 777  :       *document_ << " " + normalizeEOL( root.getComment( commentAfterOnSameLine ) );

	push	1
	lea	ecx, DWORD PTR $T63296[ebp]
	push	ecx
	mov	ecx, DWORD PTR _root$[ebp]
	call	?getComment@Value@Json@@QBE?AV?$basic_string@DU?$char_traits@D@std@@V?$allocator@D@2@@std@@W4CommentPlacement@2@@Z ; Json::Value::getComment
	mov	DWORD PTR tv156[ebp], eax
	mov	edx, DWORD PTR tv156[ebp]
	mov	DWORD PTR tv147[ebp], edx
	mov	DWORD PTR __$EHRec$[ebp+8], 0
	mov	eax, DWORD PTR tv147[ebp]
	push	eax
	lea	ecx, DWORD PTR $T63297[ebp]
	push	ecx
	call	?normalizeEOL@StyledStreamWriter@Json@@CA?AV?$basic_string@DU?$char_traits@D@std@@V?$allocator@D@2@@std@@ABV34@@Z ; Json::StyledStreamWriter::normalizeEOL
	add	esp, 8
	mov	DWORD PTR tv157[ebp], eax
	mov	edx, DWORD PTR tv157[ebp]
	mov	DWORD PTR tv149[ebp], edx
	mov	BYTE PTR __$EHRec$[ebp+8], 1
	mov	eax, DWORD PTR tv149[ebp]
	push	eax
	push	OFFSET ??_C@_01CLKCMJKC@?5?$AA@
	lea	ecx, DWORD PTR $T63298[ebp]
	push	ecx
	call	DWORD PTR __imp_??$?HDU?$char_traits@D@std@@V?$allocator@D@1@@std@@YA?AV?$basic_string@DU?$char_traits@D@std@@V?$allocator@D@2@@0@PBDABV10@@Z
	add	esp, 12					; 0000000cH
	mov	DWORD PTR tv158[ebp], eax
	mov	edx, DWORD PTR tv158[ebp]
	mov	DWORD PTR tv151[ebp], edx
	mov	BYTE PTR __$EHRec$[ebp+8], 2
	mov	eax, DWORD PTR tv151[ebp]
	push	eax
	mov	ecx, DWORD PTR _this$[ebp]
	mov	edx, DWORD PTR [ecx+24]
	push	edx
	call	DWORD PTR __imp_??$?6DU?$char_traits@D@std@@V?$allocator@D@1@@std@@YAAAV?$basic_ostream@DU?$char_traits@D@std@@@0@AAV10@ABV?$basic_string@DU?$char_traits@D@std@@V?$allocator@D@2@@0@@Z
	add	esp, 8
	mov	BYTE PTR __$EHRec$[ebp+8], 1
	lea	ecx, DWORD PTR $T63298[ebp]
	call	DWORD PTR __imp_??1?$basic_string@DU?$char_traits@D@std@@V?$allocator@D@2@@std@@QAE@XZ
	mov	BYTE PTR __$EHRec$[ebp+8], 0
	lea	ecx, DWORD PTR $T63297[ebp]
	call	DWORD PTR __imp_??1?$basic_string@DU?$char_traits@D@std@@V?$allocator@D@2@@std@@QAE@XZ
	mov	DWORD PTR __$EHRec$[ebp+8], -1
	lea	ecx, DWORD PTR $T63296[ebp]
	call	DWORD PTR __imp_??1?$basic_string@DU?$char_traits@D@std@@V?$allocator@D@2@@std@@QAE@XZ
$LN2@writeComme@4:

; 778  : 
; 779  :    if ( root.hasComment( commentAfter ) )

	push	2
	mov	ecx, DWORD PTR _root$[ebp]
	call	?hasComment@Value@Json@@QBE_NW4CommentPlacement@2@@Z ; Json::Value::hasComment
	movzx	eax, al
	test	eax, eax
	je	$LN3@writeComme@4

; 780  :    {
; 781  :       *document_ << "\n";

	push	OFFSET ??_C@_01EEMJAFIK@?6?$AA@
	mov	ecx, DWORD PTR _this$[ebp]
	mov	edx, DWORD PTR [ecx+24]
	push	edx
	call	??$?6U?$char_traits@D@std@@@std@@YAAAV?$basic_ostream@DU?$char_traits@D@std@@@0@AAV10@PBD@Z ; std::operator<<<std::char_traits<char> >
	add	esp, 8

; 782  :       *document_ << normalizeEOL( root.getComment( commentAfter ) );

	push	2
	lea	eax, DWORD PTR $T63299[ebp]
	push	eax
	mov	ecx, DWORD PTR _root$[ebp]
	call	?getComment@Value@Json@@QBE?AV?$basic_string@DU?$char_traits@D@std@@V?$allocator@D@2@@std@@W4CommentPlacement@2@@Z ; Json::Value::getComment
	mov	DWORD PTR tv159[ebp], eax
	mov	ecx, DWORD PTR tv159[ebp]
	mov	DWORD PTR tv153[ebp], ecx
	mov	DWORD PTR __$EHRec$[ebp+8], 3
	mov	edx, DWORD PTR tv153[ebp]
	push	edx
	lea	eax, DWORD PTR $T63300[ebp]
	push	eax
	call	?normalizeEOL@StyledStreamWriter@Json@@CA?AV?$basic_string@DU?$char_traits@D@std@@V?$allocator@D@2@@std@@ABV34@@Z ; Json::StyledStreamWriter::normalizeEOL
	add	esp, 8
	mov	DWORD PTR tv160[ebp], eax
	mov	ecx, DWORD PTR tv160[ebp]
	mov	DWORD PTR tv155[ebp], ecx
	mov	BYTE PTR __$EHRec$[ebp+8], 4
	mov	edx, DWORD PTR tv155[ebp]
	push	edx
	mov	eax, DWORD PTR _this$[ebp]
	mov	ecx, DWORD PTR [eax+24]
	push	ecx
	call	DWORD PTR __imp_??$?6DU?$char_traits@D@std@@V?$allocator@D@1@@std@@YAAAV?$basic_ostream@DU?$char_traits@D@std@@@0@AAV10@ABV?$basic_string@DU?$char_traits@D@std@@V?$allocator@D@2@@0@@Z
	add	esp, 8
	mov	BYTE PTR __$EHRec$[ebp+8], 3
	lea	ecx, DWORD PTR $T63300[ebp]
	call	DWORD PTR __imp_??1?$basic_string@DU?$char_traits@D@std@@V?$allocator@D@2@@std@@QAE@XZ
	mov	DWORD PTR __$EHRec$[ebp+8], -1
	lea	ecx, DWORD PTR $T63299[ebp]
	call	DWORD PTR __imp_??1?$basic_string@DU?$char_traits@D@std@@V?$allocator@D@2@@std@@QAE@XZ

; 783  :       *document_ << "\n";

	push	OFFSET ??_C@_01EEMJAFIK@?6?$AA@
	mov	edx, DWORD PTR _this$[ebp]
	mov	eax, DWORD PTR [edx+24]
	push	eax
	call	??$?6U?$char_traits@D@std@@@std@@YAAAV?$basic_ostream@DU?$char_traits@D@std@@@0@AAV10@PBD@Z ; std::operator<<<std::char_traits<char> >
	add	esp, 8
$LN3@writeComme@4:

; 784  :    }
; 785  : }

	mov	ecx, DWORD PTR __$EHRec$[ebp]
	mov	DWORD PTR fs:0, ecx
	pop	ecx
	mov	esp, ebp
	pop	ebp
	ret	4
_TEXT	ENDS
;	COMDAT text$x
text$x	SEGMENT
__unwindfunclet$?writeCommentAfterValueOnSameLine@StyledStreamWriter@Json@@AAEXABVValue@2@@Z$0:
	lea	ecx, DWORD PTR $T63296[ebp]
	jmp	DWORD PTR __imp_??1?$basic_string@DU?$char_traits@D@std@@V?$allocator@D@2@@std@@QAE@XZ
__unwindfunclet$?writeCommentAfterValueOnSameLine@StyledStreamWriter@Json@@AAEXABVValue@2@@Z$1:
	lea	ecx, DWORD PTR $T63297[ebp]
	jmp	DWORD PTR __imp_??1?$basic_string@DU?$char_traits@D@std@@V?$allocator@D@2@@std@@QAE@XZ
__unwindfunclet$?writeCommentAfterValueOnSameLine@StyledStreamWriter@Json@@AAEXABVValue@2@@Z$2:
	lea	ecx, DWORD PTR $T63298[ebp]
	jmp	DWORD PTR __imp_??1?$basic_string@DU?$char_traits@D@std@@V?$allocator@D@2@@std@@QAE@XZ
__unwindfunclet$?writeCommentAfterValueOnSameLine@StyledStreamWriter@Json@@AAEXABVValue@2@@Z$3:
	lea	ecx, DWORD PTR $T63299[ebp]
	jmp	DWORD PTR __imp_??1?$basic_string@DU?$char_traits@D@std@@V?$allocator@D@2@@std@@QAE@XZ
__unwindfunclet$?writeCommentAfterValueOnSameLine@StyledStreamWriter@Json@@AAEXABVValue@2@@Z$4:
	lea	ecx, DWORD PTR $T63300[ebp]
	jmp	DWORD PTR __imp_??1?$basic_string@DU?$char_traits@D@std@@V?$allocator@D@2@@std@@QAE@XZ
__ehhandler$?writeCommentAfterValueOnSameLine@StyledStreamWriter@Json@@AAEXABVValue@2@@Z:
	mov	edx, DWORD PTR [esp+8]
	lea	eax, DWORD PTR [edx+12]
	mov	ecx, DWORD PTR [edx-188]
	xor	ecx, eax
	call	@__security_check_cookie@4
	mov	eax, OFFSET __ehfuncinfo$?writeCommentAfterValueOnSameLine@StyledStreamWriter@Json@@AAEXABVValue@2@@Z
	jmp	___CxxFrameHandler3
text$x	ENDS
?writeCommentAfterValueOnSameLine@StyledStreamWriter@Json@@AAEXABVValue@2@@Z ENDP ; Json::StyledStreamWriter::writeCommentAfterValueOnSameLine
; Function compile flags: /Odtp
;	COMDAT ?hasCommentForValue@StyledStreamWriter@Json@@AAE_NABVValue@2@@Z
_TEXT	SEGMENT
tv79 = -8						; size = 4
_this$ = -4						; size = 4
_value$ = 8						; size = 4
?hasCommentForValue@StyledStreamWriter@Json@@AAE_NABVValue@2@@Z PROC ; Json::StyledStreamWriter::hasCommentForValue, COMDAT
; _this$ = ecx

; 790  : {

	push	ebp
	mov	ebp, esp
	sub	esp, 8
	mov	DWORD PTR _this$[ebp], ecx

; 791  :    return value.hasComment( commentBefore )
; 792  :           ||  value.hasComment( commentAfterOnSameLine )
; 793  :           ||  value.hasComment( commentAfter );

	push	0
	mov	ecx, DWORD PTR _value$[ebp]
	call	?hasComment@Value@Json@@QBE_NW4CommentPlacement@2@@Z ; Json::Value::hasComment
	movzx	eax, al
	test	eax, eax
	jne	SHORT $LN3@hasComment@2
	push	1
	mov	ecx, DWORD PTR _value$[ebp]
	call	?hasComment@Value@Json@@QBE_NW4CommentPlacement@2@@Z ; Json::Value::hasComment
	movzx	ecx, al
	test	ecx, ecx
	jne	SHORT $LN3@hasComment@2
	push	2
	mov	ecx, DWORD PTR _value$[ebp]
	call	?hasComment@Value@Json@@QBE_NW4CommentPlacement@2@@Z ; Json::Value::hasComment
	movzx	edx, al
	test	edx, edx
	jne	SHORT $LN3@hasComment@2
	mov	DWORD PTR tv79[ebp], 0
	jmp	SHORT $LN4@hasComment@2
$LN3@hasComment@2:
	mov	DWORD PTR tv79[ebp], 1
$LN4@hasComment@2:
	mov	al, BYTE PTR tv79[ebp]

; 794  : }

	mov	esp, ebp
	pop	ebp
	ret	4
?hasCommentForValue@StyledStreamWriter@Json@@AAE_NABVValue@2@@Z ENDP ; Json::StyledStreamWriter::hasCommentForValue
_TEXT	ENDS
PUBLIC	__$ArrayPad$
;	COMDAT xdata$x
xdata$x	SEGMENT
__unwindtable$?normalizeEOL@StyledStreamWriter@Json@@CA?AV?$basic_string@DU?$char_traits@D@std@@V?$allocator@D@2@@std@@ABV34@@Z DD 0ffffffffH
	DD	FLAT:__unwindfunclet$?normalizeEOL@StyledStreamWriter@Json@@CA?AV?$basic_string@DU?$char_traits@D@std@@V?$allocator@D@2@@std@@ABV34@@Z$1
	DD	00H
	DD	FLAT:__unwindfunclet$?normalizeEOL@StyledStreamWriter@Json@@CA?AV?$basic_string@DU?$char_traits@D@std@@V?$allocator@D@2@@std@@ABV34@@Z$0
__ehfuncinfo$?normalizeEOL@StyledStreamWriter@Json@@CA?AV?$basic_string@DU?$char_traits@D@std@@V?$allocator@D@2@@std@@ABV34@@Z DD 019930522H
	DD	02H
	DD	FLAT:__unwindtable$?normalizeEOL@StyledStreamWriter@Json@@CA?AV?$basic_string@DU?$char_traits@D@std@@V?$allocator@D@2@@std@@ABV34@@Z
	DD	2 DUP(00H)
	DD	2 DUP(00H)
	DD	00H
	DD	01H
; Function compile flags: /Odtp
xdata$x	ENDS
;	COMDAT ?normalizeEOL@StyledStreamWriter@Json@@CA?AV?$basic_string@DU?$char_traits@D@std@@V?$allocator@D@2@@std@@ABV34@@Z
_TEXT	SEGMENT
$T63321 = -64						; size = 4
_c$56652 = -57						; size = 1
_normalized$ = -56					; size = 28
__$ArrayPad$ = -28					; size = 4
_end$ = -24						; size = 4
_begin$ = -20						; size = 4
_current$ = -16						; size = 4
__$EHRec$ = -12						; size = 12
___$ReturnUdt$ = 8					; size = 4
_text$ = 12						; size = 4
?normalizeEOL@StyledStreamWriter@Json@@CA?AV?$basic_string@DU?$char_traits@D@std@@V?$allocator@D@2@@std@@ABV34@@Z PROC ; Json::StyledStreamWriter::normalizeEOL, COMDAT

; 799  : {

	push	ebp
	mov	ebp, esp
	push	-1
	push	__ehhandler$?normalizeEOL@StyledStreamWriter@Json@@CA?AV?$basic_string@DU?$char_traits@D@std@@V?$allocator@D@2@@std@@ABV34@@Z
	mov	eax, DWORD PTR fs:0
	push	eax
	sub	esp, 52					; 00000034H
	mov	eax, DWORD PTR ___security_cookie
	xor	eax, ebp
	mov	DWORD PTR __$ArrayPad$[ebp], eax
	push	eax
	lea	eax, DWORD PTR __$EHRec$[ebp]
	mov	DWORD PTR fs:0, eax
	mov	DWORD PTR $T63321[ebp], 0

; 800  :    std::string normalized;

	lea	ecx, DWORD PTR _normalized$[ebp]
	call	DWORD PTR __imp_??0?$basic_string@DU?$char_traits@D@std@@V?$allocator@D@2@@std@@QAE@XZ
	mov	DWORD PTR __$EHRec$[ebp+8], 1

; 801  :    normalized.reserve( text.length() );

	mov	ecx, DWORD PTR _text$[ebp]
	call	DWORD PTR __imp_?length@?$basic_string@DU?$char_traits@D@std@@V?$allocator@D@2@@std@@QBEIXZ
	push	eax
	lea	ecx, DWORD PTR _normalized$[ebp]
	call	DWORD PTR __imp_?reserve@?$basic_string@DU?$char_traits@D@std@@V?$allocator@D@2@@std@@QAEXI@Z

; 802  :    const char *begin = text.c_str();

	mov	ecx, DWORD PTR _text$[ebp]
	call	DWORD PTR __imp_?c_str@?$basic_string@DU?$char_traits@D@std@@V?$allocator@D@2@@std@@QBEPBDXZ
	mov	DWORD PTR _begin$[ebp], eax

; 803  :    const char *end = begin + text.length();

	mov	ecx, DWORD PTR _text$[ebp]
	call	DWORD PTR __imp_?length@?$basic_string@DU?$char_traits@D@std@@V?$allocator@D@2@@std@@QBEIXZ
	add	eax, DWORD PTR _begin$[ebp]
	mov	DWORD PTR _end$[ebp], eax

; 804  :    const char *current = begin;

	mov	eax, DWORD PTR _begin$[ebp]
	mov	DWORD PTR _current$[ebp], eax
$LN5@normalizeE@2:

; 805  :    while ( current != end )

	mov	ecx, DWORD PTR _current$[ebp]
	cmp	ecx, DWORD PTR _end$[ebp]
	je	SHORT $LN4@normalizeE@2

; 806  :    {
; 807  :       char c = *current++;

	mov	edx, DWORD PTR _current$[ebp]
	mov	al, BYTE PTR [edx]
	mov	BYTE PTR _c$56652[ebp], al
	mov	ecx, DWORD PTR _current$[ebp]
	add	ecx, 1
	mov	DWORD PTR _current$[ebp], ecx

; 808  :       if ( c == '\r' ) // mac or dos EOL

	movsx	edx, BYTE PTR _c$56652[ebp]
	cmp	edx, 13					; 0000000dH
	jne	SHORT $LN3@normalizeE@2

; 809  :       {
; 810  :          if ( *current == '\n' ) // convert dos EOL

	mov	eax, DWORD PTR _current$[ebp]
	movsx	ecx, BYTE PTR [eax]
	cmp	ecx, 10					; 0000000aH
	jne	SHORT $LN2@normalizeE@2

; 811  :             ++current;

	mov	edx, DWORD PTR _current$[ebp]
	add	edx, 1
	mov	DWORD PTR _current$[ebp], edx
$LN2@normalizeE@2:

; 812  :          normalized += '\n';

	push	10					; 0000000aH
	lea	ecx, DWORD PTR _normalized$[ebp]
	call	DWORD PTR __imp_??Y?$basic_string@DU?$char_traits@D@std@@V?$allocator@D@2@@std@@QAEAAV01@D@Z

; 813  :       }
; 814  :       else // handle unix EOL & other char

	jmp	SHORT $LN1@normalizeE@2
$LN3@normalizeE@2:

; 815  :          normalized += c;

	movzx	eax, BYTE PTR _c$56652[ebp]
	push	eax
	lea	ecx, DWORD PTR _normalized$[ebp]
	call	DWORD PTR __imp_??Y?$basic_string@DU?$char_traits@D@std@@V?$allocator@D@2@@std@@QAEAAV01@D@Z
$LN1@normalizeE@2:

; 816  :    }

	jmp	SHORT $LN5@normalizeE@2
$LN4@normalizeE@2:

; 817  :    return normalized;

	lea	ecx, DWORD PTR _normalized$[ebp]
	push	ecx
	mov	ecx, DWORD PTR ___$ReturnUdt$[ebp]
	call	DWORD PTR __imp_??0?$basic_string@DU?$char_traits@D@std@@V?$allocator@D@2@@std@@QAE@ABV01@@Z
	mov	edx, DWORD PTR $T63321[ebp]
	or	edx, 1
	mov	DWORD PTR $T63321[ebp], edx
	mov	BYTE PTR __$EHRec$[ebp+8], 0
	lea	ecx, DWORD PTR _normalized$[ebp]
	call	DWORD PTR __imp_??1?$basic_string@DU?$char_traits@D@std@@V?$allocator@D@2@@std@@QAE@XZ
	mov	eax, DWORD PTR ___$ReturnUdt$[ebp]

; 818  : }

	mov	ecx, DWORD PTR __$EHRec$[ebp]
	mov	DWORD PTR fs:0, ecx
	pop	ecx
	mov	ecx, DWORD PTR __$ArrayPad$[ebp]
	xor	ecx, ebp
	call	@__security_check_cookie@4
	mov	esp, ebp
	pop	ebp
	ret	0
_TEXT	ENDS
;	COMDAT text$x
text$x	SEGMENT
__unwindfunclet$?normalizeEOL@StyledStreamWriter@Json@@CA?AV?$basic_string@DU?$char_traits@D@std@@V?$allocator@D@2@@std@@ABV34@@Z$0:
	lea	ecx, DWORD PTR _normalized$[ebp]
	jmp	DWORD PTR __imp_??1?$basic_string@DU?$char_traits@D@std@@V?$allocator@D@2@@std@@QAE@XZ
__unwindfunclet$?normalizeEOL@StyledStreamWriter@Json@@CA?AV?$basic_string@DU?$char_traits@D@std@@V?$allocator@D@2@@std@@ABV34@@Z$1:
	mov	eax, DWORD PTR $T63321[ebp]
	and	eax, 1
	je	$LN10@normalizeE@2
	and	DWORD PTR $T63321[ebp], -2		; fffffffeH
	mov	ecx, DWORD PTR ___$ReturnUdt$[ebp]
	jmp	DWORD PTR __imp_??1?$basic_string@DU?$char_traits@D@std@@V?$allocator@D@2@@std@@QAE@XZ
$LN10@normalizeE@2:
	ret	0
__ehhandler$?normalizeEOL@StyledStreamWriter@Json@@CA?AV?$basic_string@DU?$char_traits@D@std@@V?$allocator@D@2@@std@@ABV34@@Z:
	mov	edx, DWORD PTR [esp+8]
	lea	eax, DWORD PTR [edx+12]
	mov	ecx, DWORD PTR [edx-56]
	xor	ecx, eax
	call	@__security_check_cookie@4
	mov	ecx, DWORD PTR [edx-16]
	xor	ecx, eax
	call	@__security_check_cookie@4
	mov	eax, OFFSET __ehfuncinfo$?normalizeEOL@StyledStreamWriter@Json@@CA?AV?$basic_string@DU?$char_traits@D@std@@V?$allocator@D@2@@std@@ABV34@@Z
	jmp	___CxxFrameHandler3
text$x	ENDS
?normalizeEOL@StyledStreamWriter@Json@@CA?AV?$basic_string@DU?$char_traits@D@std@@V?$allocator@D@2@@std@@ABV34@@Z ENDP ; Json::StyledStreamWriter::normalizeEOL
PUBLIC	??1StyledStreamWriter@Json@@QAE@XZ		; Json::StyledStreamWriter::~StyledStreamWriter
PUBLIC	??_C@_01GPOEFGEJ@?7?$AA@			; `string'
PUBLIC	__$ArrayPad$
PUBLIC	??6Json@@YAAAV?$basic_ostream@DU?$char_traits@D@std@@@std@@AAV12@ABVValue@0@@Z ; Json::operator<<
;	COMDAT ??_C@_01GPOEFGEJ@?7?$AA@
CONST	SEGMENT
??_C@_01GPOEFGEJ@?7?$AA@ DB 09H, 00H			; `string'
CONST	ENDS
;	COMDAT xdata$x
xdata$x	SEGMENT
__unwindtable$??6Json@@YAAAV?$basic_ostream@DU?$char_traits@D@std@@@std@@AAV12@ABVValue@0@@Z DD 0ffffffffH
	DD	FLAT:__unwindfunclet$??6Json@@YAAAV?$basic_ostream@DU?$char_traits@D@std@@@std@@AAV12@ABVValue@0@@Z$1
__ehfuncinfo$??6Json@@YAAAV?$basic_ostream@DU?$char_traits@D@std@@@std@@AAV12@ABVValue@0@@Z DD 019930522H
	DD	01H
	DD	FLAT:__unwindtable$??6Json@@YAAAV?$basic_ostream@DU?$char_traits@D@std@@@std@@AAV12@ABVValue@0@@Z
	DD	2 DUP(00H)
	DD	2 DUP(00H)
	DD	00H
	DD	01H
; Function compile flags: /Odtp
xdata$x	ENDS
;	COMDAT ??6Json@@YAAAV?$basic_ostream@DU?$char_traits@D@std@@@std@@AAV12@ABVValue@0@@Z
_TEXT	SEGMENT
tv86 = -132						; size = 4
tv85 = -128						; size = 4
$T63333 = -124						; size = 4
$T63332 = -120						; size = 4
_writer$ = -116						; size = 92
__$ArrayPad$ = -16					; size = 4
__$EHRec$ = -12						; size = 12
_sout$ = 8						; size = 4
_root$ = 12						; size = 4
??6Json@@YAAAV?$basic_ostream@DU?$char_traits@D@std@@@std@@AAV12@ABVValue@0@@Z PROC ; Json::operator<<, COMDAT

; 822  : {

	push	ebp
	mov	ebp, esp
	push	-1
	push	__ehhandler$??6Json@@YAAAV?$basic_ostream@DU?$char_traits@D@std@@@std@@AAV12@ABVValue@0@@Z
	mov	eax, DWORD PTR fs:0
	push	eax
	sub	esp, 120				; 00000078H
	mov	eax, DWORD PTR ___security_cookie
	xor	eax, ebp
	mov	DWORD PTR __$ArrayPad$[ebp], eax
	push	eax
	lea	eax, DWORD PTR __$EHRec$[ebp]
	mov	DWORD PTR fs:0, eax

; 823  :    Json::StyledStreamWriter writer;

	sub	esp, 28					; 0000001cH
	mov	ecx, esp
	mov	DWORD PTR $T63332[ebp], esp
	push	OFFSET ??_C@_01GPOEFGEJ@?7?$AA@
	call	DWORD PTR __imp_??0?$basic_string@DU?$char_traits@D@std@@V?$allocator@D@2@@std@@QAE@PBD@Z
	mov	DWORD PTR tv85[ebp], eax
	lea	ecx, DWORD PTR _writer$[ebp]
	call	??0StyledStreamWriter@Json@@QAE@V?$basic_string@DU?$char_traits@D@std@@V?$allocator@D@2@@std@@@Z ; Json::StyledStreamWriter::StyledStreamWriter
	mov	DWORD PTR tv86[ebp], eax
	mov	DWORD PTR __$EHRec$[ebp+8], 0

; 824  :    writer.write(sout, root);

	mov	eax, DWORD PTR _root$[ebp]
	push	eax
	mov	ecx, DWORD PTR _sout$[ebp]
	push	ecx
	lea	ecx, DWORD PTR _writer$[ebp]
	call	?write@StyledStreamWriter@Json@@QAEXAAV?$basic_ostream@DU?$char_traits@D@std@@@std@@ABVValue@2@@Z ; Json::StyledStreamWriter::write

; 825  :    return sout;

	mov	edx, DWORD PTR _sout$[ebp]
	mov	DWORD PTR $T63333[ebp], edx
	mov	DWORD PTR __$EHRec$[ebp+8], -1
	lea	ecx, DWORD PTR _writer$[ebp]
	call	??1StyledStreamWriter@Json@@QAE@XZ	; Json::StyledStreamWriter::~StyledStreamWriter
	mov	eax, DWORD PTR $T63333[ebp]

; 826  : }

	mov	ecx, DWORD PTR __$EHRec$[ebp]
	mov	DWORD PTR fs:0, ecx
	pop	ecx
	mov	ecx, DWORD PTR __$ArrayPad$[ebp]
	xor	ecx, ebp
	call	@__security_check_cookie@4
	mov	esp, ebp
	pop	ebp
	ret	0
_TEXT	ENDS
;	COMDAT text$x
text$x	SEGMENT
__unwindfunclet$??6Json@@YAAAV?$basic_ostream@DU?$char_traits@D@std@@@std@@AAV12@ABVValue@0@@Z$1:
	lea	ecx, DWORD PTR _writer$[ebp]
	jmp	??1StyledStreamWriter@Json@@QAE@XZ	; Json::StyledStreamWriter::~StyledStreamWriter
__ehhandler$??6Json@@YAAAV?$basic_ostream@DU?$char_traits@D@std@@@std@@AAV12@ABVValue@0@@Z:
	mov	edx, DWORD PTR [esp+8]
	lea	eax, DWORD PTR [edx+12]
	mov	ecx, DWORD PTR [edx-124]
	xor	ecx, eax
	call	@__security_check_cookie@4
	mov	ecx, DWORD PTR [edx-4]
	xor	ecx, eax
	call	@__security_check_cookie@4
	mov	eax, OFFSET __ehfuncinfo$??6Json@@YAAAV?$basic_ostream@DU?$char_traits@D@std@@@std@@AAV12@ABVValue@0@@Z
	jmp	___CxxFrameHandler3
text$x	ENDS
??6Json@@YAAAV?$basic_ostream@DU?$char_traits@D@std@@@std@@AAV12@ABVValue@0@@Z ENDP ; Json::operator<<
;	COMDAT xdata$x
; File f:\3dtetris\trunk\librarys\bohge\external\json\include\json\writer.h
xdata$x	SEGMENT
__unwindtable$??1StyledStreamWriter@Json@@QAE@XZ DD 0ffffffffH
	DD	FLAT:__unwindfunclet$??1StyledStreamWriter@Json@@QAE@XZ$0
	DD	00H
	DD	FLAT:__unwindfunclet$??1StyledStreamWriter@Json@@QAE@XZ$1
__ehfuncinfo$??1StyledStreamWriter@Json@@QAE@XZ DD 019930522H
	DD	02H
	DD	FLAT:__unwindtable$??1StyledStreamWriter@Json@@QAE@XZ
	DD	2 DUP(00H)
	DD	2 DUP(00H)
	DD	00H
	DD	01H
; Function compile flags: /Odtp
xdata$x	ENDS
;	COMDAT ??1StyledStreamWriter@Json@@QAE@XZ
_TEXT	SEGMENT
_this$ = -16						; size = 4
__$EHRec$ = -12						; size = 12
??1StyledStreamWriter@Json@@QAE@XZ PROC			; Json::StyledStreamWriter::~StyledStreamWriter, COMDAT
; _this$ = ecx

; 126  :       ~StyledStreamWriter(){}

	push	ebp
	mov	ebp, esp
	push	-1
	push	__ehhandler$??1StyledStreamWriter@Json@@QAE@XZ
